BASSP64.ASM......PAGE 0001

LINE# LOC   CODE        LINE































































ASSEMBLERP64......PAGE 0002

LINE# LOC   CODE        LINE


00003  0000              ;*********************************
00004  0000              *=$1001                ;START OF BASIC PLUS 4
00005  1001              ;*********************************
00006  1001              ; SET BSTUB TO ONE TO ALLOW FOR
00007  1001              ; INSERTION OF BASIC STUB CODE
00008  1001              ;*********************************
00009  1001              BSTUB  = 1
00010  1001              ;*********************************
00011  1001              ;
00012  1001              ;         ASSEBMLERP64
00013  1001              ;      ASSEMBLER.P64 V080282
00014  1001              ; CBM RESIDENT ASSEMBLER V080282
00015  1001              ;
00016  1001              ; (C) 1982 BY COMMODORE MACHINES
00017  1001              ;
00018  1001              ;  DOCUMENTED BY DENTON MARLOWE
00019  1001              ;********************************
00020  1001              ;
00021  1001              ; BASIC FORMAT PROGRAM
00022  1001              ;
00023  1001              ; 10 SYS(4111)
00024  1001              ;
00025  1001              ;*********************************
00027  1001              ;.IF  BSTUB == 1
00028  1001  0D 10              .WORD BASIC     ;LINE LINK POINTER
00029  1003  0A                 .BYTE $0A,$00   ;LINE NUMBER (10)
00029  1004  00 
00030  1005  9E                 .BYTE $9E       ;SYS COMMAND TOKEN
00031  1006  28 34              .BYTE '(4111)'  ;CALL TO $100F
00032  100C  00                 .BYTE $00       ;END OF LINE
00033  100D  00          BASIC  .BYTE $00,$00   ;END OF BASIC
00033  100E  00 
00035  100F              ;.FI
00036  100F              ;********************************
00037  100F              ;*=$100F        ;ASSEMBLER64 ORGIN
00038  100F              ;*********************************
00039  100F              ; MAIN BODY OF CODE
00040  100F              ;*********************************
00041  100F  00 00 00    .INCLUDE "....64...."
***  UNDEFINED DIRECTIVE**^
00042  1012              ;********************************
00043  1012              .END


ERRORS = 00001


SYMBOL TABLE

SYMBOL VALUE
 BASIC    100D    BSTUB    0001   

END OF ASSEMBLY
BASSP64.ASM......PAGE 0001

LINE# LOC   CODE        LINE































































ASSEMBLERP64......PAGE 0002

LINE# LOC   CODE        LINE


00003  0000              ;*********************************
00004  0000              *=$1001                ;START OF BASIC PLUS 4
00005  1001              ;*********************************
00006  1001              ; SET BSTUB TO ONE TO ALLOW FOR
00007  1001              ; INSERTION OF BASIC STUB CODE
00008  1001              ;*********************************
00009  1001              BSTUB  = 1
00010  1001              ;*********************************
00011  1001              ;
00012  1001              ;         ASSEBMLERP64
00013  1001              ;      ASSEMBLER.P64 V080282
00014  1001              ; CBM RESIDENT ASSEMBLER V080282
00015  1001              ;
00016  1001              ; (C) 1982 BY COMMODORE MACHINES
00017  1001              ;
00018  1001              ;  DOCUMENTED BY DENTON MARLOWE
00019  1001              ;********************************
00020  1001              ;
00021  1001              ; BASIC FORMAT PROGRAM
00022  1001              ;
00023  1001              ; 10 SYS(4111)
00024  1001              ;
00025  1001              ;*********************************
00027  1001              ;.IF  BSTUB == 1
00028  1001  0D 10              .WORD BASIC     ;LINE LINK POINTER
00029  1003  0A                 .BYTE $0A,$00   ;LINE NUMBER (10)
00029  1004  00 
00030  1005  9E                 .BYTE $9E       ;SYS COMMAND TOKEN
00031  1006  28 34              .BYTE '(4111)'  ;CALL TO $100F
00032  100C  00                 .BYTE $00       ;END OF LINE
00033  100D  00          BASIC  .BYTE $00,$00   ;END OF BASIC
00033  100E  00 
00035  100F              ;.FI
00036  100F              ;********************************
00037  100F              ;*=$100F        ;ASSEMBLER64 ORGIN
00038  100F              ;*********************************
00039  100F              ; MAIN BODY OF CODE
00040  100F              ;*********************************
00041  100F              .FIL   ASSP64.ASM
00042  100F              ;*********************************
00043  100F              ;
00044  100F              ;         ASSEBMLER64
00045  100F              ;      ASSEMBLER.C64 V080282
00046  100F              ; CBM RESIDENT ASSEMBLER V080282
00047  100F              ;
00048  100F              ; (C) 1982 BY COMMODORE MACHINES
00049  100F              ;
00050  100F              ;  DOCUMENTED BY DENTON MARLOWE
00051  100F              ;********************************
00052  100F              ; EXTERNAL ADDRESS EQUATES
00053  100F              ;********************************
00054  100F              BASICW = $867E
00055  100F              CHROUE = $DC49
00056  100F              SCROLY = $FF06
00057  100F              ;********************************






ASSEMBLERP64......PAGE 0003

LINE# LOC   CODE        LINE


00058  100F              ; EXTERNAL ADDRESS EQUATES
00059  100F              ;********************************
00060  100F              SETMSG=$FF90
00061  100F              SETLFS=$FFBA
00062  100F              SETNAM=$FFBD
00063  100F              OPEN=$FFC0
00064  100F              CLOSE=$FFC3
00065  100F              CHKIN=$FFC6
00066  100F              CHKOUT=$FFC9
00067  100F              CLRCHN=$FFCC
00068  100F              CHRIN=$FFCF
00069  100F              CHROUT=$FFD2
00070  100F              STOP=$FFE1
00071  100F              GETIN=$FFE4
00072  100F              ;********************************
00073  100F  20 7A 30    ZZ080F JSR XX287A
00074  1012  A9 80              LDA #$80
00075  1014  20 90 FF           JSR SETMSG
00076  1017  4C 90 11           JMP XX0990
00077  101A              ;********************************
00078  101A              ; VARIABLE STORAGE
00079  101A              ;********************************
00080  101A              .LIB   ASSVARTAB64.ASM
00081  101A              ;********************************
00082  101A              ;FILE: ASSVARTAB.ASM.SEQ
00083  101A              ;********************************
00084  101A              ;
00085  101A              ;********************************
00086  101A              ; VARIABLE STORAGE
00087  101A              ;********************************
00088  101A  AA          XX081A .BYTE $AA
00089  101B  AA                 .BYTE $AA
00090  101C  AA                 .BYTE $AA
00091  101D  AA                 .BYTE $AA
00092  101E  AA                 .BYTE $AA
00093  101F  AA                 .BYTE $AA
00094  1020  AA                 .BYTE $AA
00095  1021  AA                 .BYTE $AA
00096  1022  AA                 .BYTE $AA
00097  1023  AA                 .BYTE $AA
00098  1024  AA                 .BYTE $AA
00099  1025  AA                 .BYTE $AA
00100  1026  AA                 .BYTE $AA
00101  1027  AA                 .BYTE $AA
00102  1028  AA                 .BYTE $AA
00103  1029  AA                 .BYTE $AA
00104  102A  AA                 .BYTE $AA
00105  102B  AA                 .BYTE $AA
00106  102C  AA                 .BYTE $AA
00107  102D              ;********************************
00108  102D              ;
00109  102D              ;********************************
00110  102D  AA          XX082D .BYTE $AA
00111  102E  AA          XX082E .BYTE $AA
00112  102F  AA          XX082F .BYTE $AA






ASSEMBLERP64......PAGE 0004

LINE# LOC   CODE        LINE


00113  1030  AA          XX0830 .BYTE $AA
00114  1031  AA          XX0831 .BYTE $AA
00115  1032  AA          XX0832 .BYTE $AA
00116  1033              ;********************************
00117  1033              ;
00118  1033              ;********************************
00119  1033  AA          XX0833 .BYTE $AA
00120  1034  AA                 .BYTE $AA
00121  1035  AA                 .BYTE $AA
00122  1036  AA                 .BYTE $AA
00123  1037  AA                 .BYTE $AA
00124  1038  AA          XX0838 .BYTE $AA
00125  1039              ;
00126  1039  AA          XX0839 .BYTE $AA
00127  103A              ;********************************
00128  103A              ; SOURCE FILE NAME BUFFER,S,R
00129  103A              ;********************************
00130  103A  AA          XX083A .BYTE $AA
00131  103B  AA                 .BYTE $AA
00132  103C  AA                 .BYTE $AA
00133  103D  AA                 .BYTE $AA
00134  103E  AA                 .BYTE $AA
00135  103F  AA                 .BYTE $AA
00136  1040  AA          XX0840 .BYTE $AA
00137  1041  AA                 .BYTE $AA
00138  1042  AA                 .BYTE $AA
00139  1043  AA                 .BYTE $AA
00140  1044  AA          XX0844 .BYTE $AA
00141  1045  AA                 .BYTE $AA
00142  1046  AA                 .BYTE $AA
00143  1047  AA                 .BYTE $AA
00144  1048  AA                 .BYTE $AA
00145  1049  AA                 .BYTE $AA
00146  104A  AA          XX084A .BYTE $AA
00147  104B  AA          XX084B .BYTE $AA
00148  104C  AA          XX084C .BYTE $AA
00149  104D  AA          XX084D .BYTE $AA
00150  104E  AA          XX084E .BYTE $AA
00151  104F  AA          XX084F .BYTE $AA
00152  1050  AA          XX0850 .BYTE $AA
00153  1051  AA          XX0851 .BYTE $AA
00154  1052  AA          XX0852 .BYTE $AA
00155  1053  AA          XX0853 .BYTE $AA
00156  1054  AA          XX0854 .BYTE $AA
00157  1055  AA          XX0855 .BYTE $AA
00158  1056  AA          XX0856 .BYTE $AA
00159  1057  AA          XX0857 .BYTE $AA
00160  1058  AA          XX0858 .BYTE $AA
00161  1059  AA          XX0859 .BYTE $AA
00162  105A  AA          XX085A .BYTE $AA
00163  105B  AA          XX085B .BYTE $AA
00164  105C  AA          XX085C .BYTE $AA
00165  105D  AA          XX085D .BYTE $AA
00166  105E  AA          XX085E .BYTE $AA
00167  105F  AA          XX085F .BYTE $AA






ASSEMBLERP64......PAGE 0005

LINE# LOC   CODE        LINE


00168  1060  AA          XX0860 .BYTE $AA
00169  1061  AA          XX0861 .BYTE $AA
00170  1062  AA          XX0862 .BYTE $AA
00171  1063  AA          XX0863 .BYTE $AA
00172  1064  AA          XX0864 .BYTE $AA
00173  1065  AA          XX0865 .BYTE $AA
00174  1066  AA          XX0866 .BYTE $AA
00175  1067  AA          XX0867 .BYTE $AA
00176  1068  AA          XX0868 .BYTE $AA
00177  1069  AA          XX0869 .BYTE $AA
00178  106A  AA          XX086A .BYTE $AA
00179  106B  AA          XX086B .BYTE $AA
00180  106C  AA          XX086C .BYTE $AA
00181  106D  AA          XX086D .BYTE $AA
00182  106E  AA          XX086E .BYTE $AA
00183  106F  AA          XX086F .BYTE $AA
00184  1070  AA          XX0870 .BYTE $AA
00185  1071  AA          XX0871 .BYTE $AA
00186  1072  AA          XX0872 .BYTE $AA
00187  1073              ;********************************
00188  1073              ; HARD COPY FLAG
00189  1073              ; ONE USE TO TO TURN SCREEN OFF
00190  1073              ; DURING OUTPUT
00191  1073              ;********************************
00192  1073  AA          XX0873 .BYTE $AA
00193  1074              ;********************************
00194  1074              ;
00195  1074              ;********************************
00196  1074  AA          XX0874 .BYTE $AA
00197  1075  AA          XX0875 .BYTE $AA
00198  1076  AA          XX0876 .BYTE $AA
00199  1077  AA          XX0877 .BYTE $AA
00200  1078  AA          XX0878 .BYTE $AA
00201  1079  AA          XX0879 .BYTE $AA
00202  107A  AA          XX087A .BYTE $AA
00203  107B  AA          XX087B .BYTE $AA
00204  107C  AA          XX087C .BYTE $AA
00205  107D  AA          XX087D .BYTE $AA
00206  107E  AA          XX087E .BYTE $AA
00207  107F  AA          XX087F .BYTE $AA
00208  1080  AA          XX0880 .BYTE $AA
00209  1081              ;********************************
00210  1081              ; SOURCE FILE LINE BUFFER
00211  1081              ;********************************
00212  1081  AA          XX0881 .BYTE $AA
00213  1082  AA                 .BYTE $AA
00214  1083  AA                 .BYTE $AA
00215  1084  AA                 .BYTE $AA
00216  1085  AA                 .BYTE $AA
00217  1086  AA                 .BYTE $AA
00218  1087  AA                 .BYTE $AA
00219  1088  AA                 .BYTE $AA
00220  1089              ;********************************
00221  1089              ;
00222  1089              ;********************************






ASSEMBLERP64......PAGE 0006

LINE# LOC   CODE        LINE


00223  1089  D8                 .BYTE $D8
00224  108A  A9                 .BYTE $A9
00225  108B  00                 .BYTE $00
00226  108C  8D                 .BYTE $8D
00227  108D  33                 .BYTE $33
00228  108E  08                 .BYTE $08
00229  108F  8D                 .BYTE $8D
00230  1090  31                 .BYTE $31
00231  1091  08                 .BYTE $08
00232  1092  8D                 .BYTE $8D
00233  1093  32                 .BYTE $32
00234  1094  08                 .BYTE $08
00235  1095  EE                 .BYTE $EE
00236  1096  31                 .BYTE $31
00237  1097  08                 .BYTE $08
00238  1098  8D                 .BYTE $8D
00239  1099  2D                 .BYTE $2D
00240  109A  08                 .BYTE $08
00241  109B  85                 .BYTE $85
00242  109C  18                 .BYTE $18
00243  109D  85                 .BYTE $85
00244  109E  19                 .BYTE $19
00245  109F  A9                 .BYTE $A9
00246  10A0  05                 .BYTE $05
00247  10A1  A2                 .BYTE $A2
00248  10A2  00                 .BYTE $00
00249  10A3  A0                 .BYTE $A0
00250  10A4  FF                 .BYTE $FF
00251  10A5  20                 .BYTE $20
00252  10A6  BA                 .BYTE $BA
00253  10A7  FF                 .BYTE $FF
00254  10A8  A9                 .BYTE $A9
00255  10A9  00                 .BYTE $00
00256  10AA  20                 .BYTE $20
00257  10AB  BD                 .BYTE $BD
00258  10AC  FF                 .BYTE $FF
00259  10AD  20                 .BYTE $20
00260  10AE  C0                 .BYTE $C0
00261  10AF  FF                 .BYTE $FF
00262  10B0  A9                 .BYTE $A9
00263  10B1  01                 .BYTE $01
00264  10B2  A2                 .BYTE $A2
00265  10B3  03                 .BYTE $03
00266  10B4  A0                 .BYTE $A0
00267  10B5  FF                 .BYTE $FF
00268  10B6  20                 .BYTE $20
00269  10B7  BA                 .BYTE $BA
00270  10B8  FF                 .BYTE $FF
00271  10B9  A9                 .BYTE $A9
00272  10BA  00                 .BYTE $00
00273  10BB  20                 .BYTE $20
00274  10BC  BD                 .BYTE $BD
00275  10BD  FF                 .BYTE $FF
00276  10BE  20                 .BYTE $20
00277  10BF  C0                 .BYTE $C0






ASSEMBLERP64......PAGE 0007

LINE# LOC   CODE        LINE


00278  10C0  FF                 .BYTE $FF
00279  10C1  A9                 .BYTE $A9
00280  10C2  93                 .BYTE $93
00281  10C3  20                 .BYTE $20
00282  10C4  D2                 .BYTE $D2
00283  10C5  FF                 .BYTE $FF
00284  10C6  A2                 .BYTE $A2
00285  10C7  05                 .BYTE $05
00286  10C8  8E                 .BYTE $8E
00287  10C9  2D                 .BYTE $2D
00288  10CA  08                 .BYTE $08
00289  10CB  20                 .BYTE $20
00290  10CC  C6                 .BYTE $C6
00291  10CD  FF                 .BYTE $FF
00292  10CE  A9          XX08CE .BYTE $A9
00293  10CF  0D          XX08CF .BYTE $0D
00294  10D0              ;********************************
00295  10D0              ; SOURCE FILE NAME BUFFER
00296  10D0              ; PADDED WITH SPACES
00297  10D0              ;********************************
00298  10D0  A0          XX08D0 .BYTE $A0
00299  10D1  13                 .BYTE $13
00300  10D2  20                 .BYTE $20
00301  10D3  7E                 .BYTE $7E
00302  10D4  0C                 .BYTE $0C
00303  10D5  20                 .BYTE $20
00304  10D6  CF                 .BYTE $CF
00305  10D7  FF                 .BYTE $FF
00306  10D8  A2                 .BYTE $A2
00307  10D9  00                 .BYTE $00
00308  10DA  8E                 .BYTE $8E
00309  10DB  30                 .BYTE $30
00310  10DC  08                 .BYTE $08
00311  10DD  C9                 .BYTE $C9
00312  10DE  4E                 .BYTE $4E
00313  10DF  F0                 .BYTE $F0
00314  10E0  02                 .BYTE $02
00315  10E1  A2                 .BYTE $A2
00316  10E2  80                 .BYTE $80
00317  10E3  8E          XX08E3 .BYTE $8E
00318  10E4  30                 .BYTE $30
00319  10E5  08                 .BYTE $08
00320  10E6  A9                 .BYTE $A9
00321  10E7  04                 .BYTE $04
00322  10E8  AA                 .BYTE $AA
00323  10E9  A0                 .BYTE $A0
00324  10EA  FF                 .BYTE $FF
00325  10EB  20                 .BYTE $20
00326  10EC  BA                 .BYTE $BA
00327  10ED  FF                 .BYTE $FF
00328  10EE  A9                 .BYTE $A9
00329  10EF  00                 .BYTE $00
00330  10F0  20                 .BYTE $20
00331  10F1  BD                 .BYTE $BD
00332  10F2  FF                 .BYTE $FF






ASSEMBLERP64......PAGE 0008

LINE# LOC   CODE        LINE


00333  10F3  20                 .BYTE $20
00334  10F4  C0                 .BYTE $C0
00335  10F5  FF                 .BYTE $FF
00336  10F6  20                 .BYTE $20
00337  10F7  7D                 .BYTE $7D
00338  10F8  0D                 .BYTE $0D
00339  10F9  A9                 .BYTE $A9
00340  10FA  0D                 .BYTE $0D
00341  10FB  20                 .BYTE $20
00342  10FC  D2                 .BYTE $D2
00343  10FD  FF                 .BYTE $FF
00344  10FE  A9                 .BYTE $A9
00345  10FF  07                 .BYTE $07
00346  1100  A2                 .BYTE $A2
00347  1101  08                 .BYTE $08
00348  1102  A0          XX0902 .BYTE $A0
00349  1103  0F          XX0903 .BYTE $0F
00350  1104  20          XX0904 .BYTE $20
00351  1105  BA          XX0905 .BYTE $BA
00352  1106  FF          XX0906 .BYTE $FF
00353  1107  A9          XX0907 .BYTE $A9
00354  1108  49          XX0908 .BYTE $49
00355  1109  8D          XX0909 .BYTE $8D
00356  110A  57                 .BYTE $57
00357  110B  08                 .BYTE $08
00358  110C  A9                 .BYTE $A9
00359  110D  30                 .BYTE $30
00360  110E  8D                 .BYTE $8D
00361  110F  58                 .BYTE $58
00362  1110  08                 .BYTE $08
00363  1111  A2                 .BYTE $A2
00364  1112  57                 .BYTE $57
00365  1113  A0                 .BYTE $A0
00366  1114  08                 .BYTE $08
00367  1115  A9                 .BYTE $A9
00368  1116  02                 .BYTE $02
00369  1117  20          XX0917 .BYTE $20
00370  1118  BD          XX0918 .BYTE $BD
00371  1119  FF          XX0919 .BYTE $FF
00372  111A  20          XX091A .BYTE $20
00373  111B  C0                 .BYTE $C0
00374  111C  FF                 .BYTE $FF
00375  111D  A9                 .BYTE $A9
00376  111E  00                 .BYTE $00
00377  111F  A0                 .BYTE $A0
00378  1120  02                 .BYTE $02
00379  1121  8D                 .BYTE $8D
00380  1122  2E                 .BYTE $2E
00381  1123  08                 .BYTE $08
00382  1124  8C                 .BYTE $8C
00383  1125  2F                 .BYTE $2F
00384  1126  08                 .BYTE $08
00385  1127  A0                 .BYTE $A0
00386  1128  00                 .BYTE $00
00387  1129  B9          XX0929 .BYTE $B9






ASSEMBLERP64......PAGE 0009

LINE# LOC   CODE        LINE


00388  112A  4B                 .BYTE $4B
00389  112B  0D                 .BYTE $0D
00390  112C  99                 .BYTE $99
00391  112D  44                 .BYTE $44
00392  112E  08                 .BYTE $08
00393  112F  C8                 .BYTE $C8
00394  1130  C0                 .BYTE $C0
00395  1131  0E                 .BYTE $0E
00396  1132  D0                 .BYTE $D0
00397  1133  F5                 .BYTE $F5
00398  1134  20                 .BYTE $20
00399  1135  E4                 .BYTE $E4
00400  1136  0C                 .BYTE $0C
00401  1137  20                 .BYTE $20
00402  1138  CC                 .BYTE $CC
00403  1139  FF                 .BYTE $FF
00404  113A  A9                 .BYTE $A9
00405  113B  08                 .BYTE $08
00406  113C  AA                 .BYTE $AA
00407  113D  A8                 .BYTE $A8
00408  113E  20          XX093E .BYTE $20
00409  113F  BA          XX093F .BYTE $BA
00410  1140  FF          XX0940 .BYTE $FF
00411  1141  A2          XX0941 .BYTE $A2
00412  1142  3D          XX0942 .BYTE $3D
00413  1143  A0          XX0943 .BYTE $A0
00414  1144  0D          XX0944 .BYTE $0D
00415  1145  A9          XX0945 .BYTE $A9
00416  1146  0E          XX0946 .BYTE $0E
00417  1147  20          XX0947 .BYTE $20
00418  1148  BD          XX0948 .BYTE $BD
00419  1149  FF          XX0949 .BYTE $FF
00420  114A  20                 .BYTE $20
00421  114B  C0                 .BYTE $C0
00422  114C  FF                 .BYTE $FF
00423  114D  20                 .BYTE $20
00424  114E  25                 .BYTE $25
00425  114F  0C                 .BYTE $0C
00426  1150  A5                 .BYTE $A5
00427  1151  18                 .BYTE $18
00428  1152  A4                 .BYTE $A4
00429  1153  19                 .BYTE $19
00430  1154  85                 .BYTE $85
00431  1155  16                 .BYTE $16
00432  1156  84                 .BYTE $84
00433  1157  17                 .BYTE $17
00434  1158  18                 .BYTE $18
00435  1159  A5                 .BYTE $A5
00436  115A  16                 .BYTE $16
00437  115B  6D                 .BYTE $6D
00438  115C  2E                 .BYTE $2E
00439  115D  08                 .BYTE $08
00440  115E  85                 .BYTE $85
00441  115F  18                 .BYTE $18
00442  1160  A5          XX0960 .BYTE $A5






ASSEMBLERP64......PAGE 0010

LINE# LOC   CODE        LINE


00443  1161              ;********************************
00444  1161              ; OBJECT FILE NAME BUFFER
00445  1161              ;********************************
00446  1161  17          XX0961 .BYTE $17
00447  1162  6D                 .BYTE $6D
00448  1163  2F                 .BYTE $2F
00449  1164  08                 .BYTE $08
00450  1165  85                 .BYTE $85
00451  1166  19                 .BYTE $19
00452  1167  A9                 .BYTE $A9
00453  1168  AA                 .BYTE $AA
00454  1169  A0                 .BYTE $A0
00455  116A  0D                 .BYTE $0D
00456  116B  85                 .BYTE $85
00457  116C  04                 .BYTE $04
00458  116D  84                 .BYTE $84
00459  116E  05                 .BYTE $05
00460  116F  A9                 .BYTE $A9
00461  1170  AA                 .BYTE $AA
00462  1171  A0                 .BYTE $A0
00463  1172  15                 .BYTE $15
00464  1173              ;********************************
00465  1173              ; NUMBER CHARACTERS IN OBJECT FILE NAME
00466  1173              ;********************************
00467  1173  85          XX0973 .BYTE $85
00468  1174              ;********************************
00469  1174              ; OUTPUT OBJECT FILE FLAG
00470  1174              ;;********************************
00471  1174  06          XX0974 .BYTE $06
00472  1175              ;********************************
00473  1175              ;
00474  1175              ;********************************
00475  1175  84          XX0975 .BYTE $84
00476  1176  07          XX0976 .BYTE $07
00477  1177  A5          XX0977 .BYTE $A5
00478  1178  04          XX0978 .BYTE $04
00479  1179  A4          XX0979 .BYTE $A4
00480  117A  05          XX097A .BYTE $05
00481  117B  85          XX097B .BYTE $85
00482  117C  0C          XX097C .BYTE $0C
00483  117D  84          XX097D .BYTE $84
00484  117E  0D          XX097E .BYTE $0D
00485  117F  A0          XX097F .BYTE $A0
00486  1180  00          XX0980 .BYTE $00
00487  1181  98          XX0981 .BYTE $98
00488  1182  91          XX0982 .BYTE $91
00489  1183  0C          XX0983 .BYTE $0C
00490  1184  E6          XX0984 .BYTE $E6
00491  1185  0C          XX0985 .BYTE $0C
00492  1186  D0          XX0986 .BYTE $D0
00493  1187  02          XX0987 .BYTE $02
00494  1188  E6          XX0988 .BYTE $E6
00495  1189              ;********************************
00496  1189              ; L0000
00497  1189              ;********************************






ASSEMBLERP64......PAGE 0011

LINE# LOC   CODE        LINE


00498  1189  0D          XX0989 .BYTE $0D
00499  118A  A5                 .BYTE $A5
00500  118B  0D                 .BYTE $0D
00501  118C  C5                 .BYTE $C5
00502  118D  07          XX098D .BYTE $07
00503  118E  D0          XX098E .BYTE $D0
00504  118F  F1          XX098F .BYTE $F1
00505  1190              ;********************************
00506  1190              ; END VARIABLE STORAGE
00507  1190              ;********************************
00508  1190              .END
00509  1190              ;********************************
00510  1190              ;
00511  1190              ;********************************
00512  1190  A2 FF       XX0990 LDX #$FF
00513  1192  9A                 TXS 
00514  1193  D8                 CLD 
00515  1194  A9 00              LDA #$00
00516  1196  8D 38 10           STA XX0838
00517  1199  8E 74 11           STX XX0974
00518  119C  8D 72 10           STA XX0872
00519  119F  8D 39 10           STA XX0839
00520  11A2  8D 66 10           STA XX0866
00521  11A5  8D 7F 10           STA XX087F
00522  11A8  8D 4D 10           STA XX084D
00523  11AB  8D 4E 10           STA XX084E
00524  11AE  8D 75 10           STA XX0875
00525  11B1  8D 83 11           STA XX0983
00526  11B4  8D 84 11           STA XX0984
00527  11B7  8D 87 11           STA XX0987
00528  11BA  8D 88 11           STA XX0988
00529  11BD  8D 5B 10           STA XX085B
00530  11C0  8D 5C 10           STA XX085C
00531  11C3              ;********************************
00532  11C3              ; POINTER TO END OF CODE SPACE
00533  11C3              ;********************************
00534  11C3  A0 35              LDY #>XX2DF1    ;#$2D      ;'-'
00535  11C5  A2 F1              LDX #<XX2DF1    ;#$F1
00536  11C7  86 0E              STX $0E
00537  11C9  84 0F              STY $0F
00538  11CB              ;********************************
00539  11CB              ;
00540  11CB              ;********************************
00541  11CB  A0 00              LDY #$00
00542  11CD  98                 TYA 
00543  11CE  91 0E              STA ($0E),Y
00544  11D0              ; SOME KIND OF OFFSET MAY BE END OF WORKSPACE
00545  11D0  A0 87              LDY #$87
00546  11D2  A2 FF              LDX #$FF
00547  11D4  86 14              STX $14
00548  11D6  84 15              STY $15
00549  11D8              ; SOME KIND OF OFFSET
00550  11D8  A0 88              LDY #$88
00551  11DA  A2 00              LDX #$00
00552  11DC  8E 76 11           STX XX0976






ASSEMBLERP64......PAGE 0012

LINE# LOC   CODE        LINE


00553  11DF  8C 77 11           STY XX0977
00554  11E2  20 2C 14           JSR XX0C2C
00555  11E5  A9 01              LDA #$01
00556  11E7  8D 4F 10           STA XX084F
00557  11EA  A9 00              LDA #$00
00558  11EC  8D 50 10           STA XX0850
00559  11EF  A9 05              LDA #$05
00560  11F1  A0 FF              LDY #$FF
00561  11F3  A2 00              LDX #$00
00562  11F5  20 BA FF           JSR SETLFS
00563  11F8  A9 00              LDA #$00
00564  11FA  20 BD FF           JSR SETNAM
00565  11FD  20 C0 FF           JSR OPEN
00566  1200  A9 01              LDA #$01
00567  1202  A0 FF              LDY #$FF
00568  1204  A2 03              LDX #$03
00569  1206  20 BA FF           JSR SETLFS
00570  1209  20 C0 FF           JSR OPEN
00571  120C              ;********************************
00572  120C              ; PRINT STARTUP BANNER
00573  120C              ;********************************
00574  120C  A9 0D       XX0A0C LDA #$0D
00575  120E  20 D2 FF           JSR CHROUT
00576  1211  A9 2B              LDA #>AA2340    ;#$23      ;'#'
00577  1213  A0 40              LDY #<AA2340    ;#$40      ;'@'
00578  1215  20 68 14           JSR XX0C68
00579  1218              ;********************************
00580  1218              ;
00581  1218              ;********************************
00582  1218  20 CC FF           JSR CLRCHN
00583  121B  A2 05              LDX #$05
00584  121D  8E 39 10           STX XX0839
00585  1220  20 C6 FF           JSR CHKIN
00586  1223  A2 28              LDX #$28        ;'('
00587  1225  86 05              STX $05
00588  1227  C6 05       XX0A27 DEC $05
00589  1229  F0 E1              BEQ XX0A0C
00590  122B  20 CF FF           JSR CHRIN
00591  122E  C9 20              CMP #$20        ;' '
00592  1230  F0 F5              BEQ XX0A27
00593  1232  C9 0D              CMP #$0D
00594  1234  F0 40              BEQ XX0A76
00595  1236  A2 00              LDX #$00
00596  1238  8E 74 11           STX XX0974
00597  123B  8E 73 11           STX XX0973
00598  123E  F0 07              BEQ XX0A47
00599  1240  20 CF FF    XX0A40 JSR CHRIN
00600  1243  C9 20              CMP #$20        ;' '
00601  1245  F0 14              BEQ XX0A5B
00602  1247  C9 0D       XX0A47 CMP #$0D
00603  1249  F0 10              BEQ XX0A5B
00604  124B  AE 73 11           LDX XX0973
00605  124E  E0 12              CPX #$12
00606  1250  F0 BA              BEQ XX0A0C
00607  1252  9D 61 11           STA XX0961,X






ASSEMBLERP64......PAGE 0013

LINE# LOC   CODE        LINE


00608  1255  E8                 INX 
00609  1256  8E 73 11           STX XX0973
00610  1259  D0 E5              BNE XX0A40
00611  125B  A9 2C       XX0A5B LDA #$2C        ;','
00612  125D  9D 61 11           STA XX0961,X
00613  1260  E8                 INX 
00614  1261  A9 53              LDA #$53        ;'S'
00615  1263  9D 61 11           STA XX0961,X
00616  1266  E8                 INX 
00617  1267  A9 2C              LDA #$2C        ;','
00618  1269  9D 61 11           STA XX0961,X
00619  126C  E8                 INX 
00620  126D  A9 57              LDA #$57        ;'W'
00621  126F  9D 61 11           STA XX0961,X
00622  1272  E8                 INX 
00623  1273  8E 73 11           STX XX0973
00624  1276              ;********************************
00625  1276              ; PRINT HARD COPY ?
00626  1276              ;********************************
00627  1276  A9 2B       XX0A76 LDA #>AA23A5    ;#$23      ;'#'
00628  1278  A0 A5              LDY #<AA23A5    ;#$A5
00629  127A  20 68 14           JSR XX0C68
00630  127D              ;********************************
00631  127D              ; PROCESS INPUT
00632  127D              ;********************************
00633  127D  20 CF FF           JSR CHRIN
00634  1280  A2 00              LDX #$00
00635  1282  8E 73 10           STX XX0873
00636  1285  C9 4E              CMP #$4E        ;'N'
00637  1287  F0 15              BEQ XX0A9E
00638  1289  A9 04              LDA #$04
00639  128B  AA                 TAX 
00640  128C  A0 FF              LDY #$FF
00641  128E  20 BA FF           JSR SETLFS
00642  1291  A9 00              LDA #$00
00643  1293  20 BD FF           JSR SETNAM
00644  1296  20 C0 FF           JSR OPEN
00645  1299  A9 80              LDA #$80
00646  129B  8D 73 10           STA XX0873
00647  129E              ;********************************
00648  129E              ; CROSS REFERENCE ?
00649  129E              ;********************************
00650  129E  A9 2B       XX0A9E LDA #>AA23BD    ;#$23      ;'#'
00651  12A0  A0 BD              LDY #<AA23BD    ;#$BD
00652  12A2  20 68 14           JSR XX0C68
00653  12A5              ;********************************
00654  12A5              ; PROCESS INPUT
00655  12A5              ;********************************
00656  12A5  20 CF FF           JSR CHRIN
00657  12A8  C9 59              CMP #$59        ;'Y'
00658  12AA  D0 03              BNE XX0AAF
00659  12AC  8D 38 10           STA XX0838
00660  12AF              ;********************************
00661  12AF              ; SOURCE FILE NAME
00662  12AF              ;********************************






ASSEMBLERP64......PAGE 0014

LINE# LOC   CODE        LINE


00663  12AF  A9 2B       XX0AAF LDA #>AA2310    ;#$23      ;'#'
00664  12B1  A0 10              LDY #<AA2310    ;#$10
00665  12B3  20 68 14           JSR XX0C68
00666  12B6              ;********************************
00667  12B6              ; PROCESS INPUT
00668  12B6              ;********************************
00669  12B6  A2 28              LDX #$28        ;'('
00670  12B8  86 05              STX $05
00671  12BA  C6 05       XX0ABA DEC $05
00672  12BC  F0 B8              BEQ XX0A76
00673  12BE  20 CF FF           JSR CHRIN
00674  12C1  C9 20              CMP #$20        ;' '
00675  12C3  F0 F5              BEQ XX0ABA
00676  12C5  C9 0D              CMP #$0D
00677  12C7  D0 03              BNE XX0ACC
00678  12C9  4C 71 30           JMP XX2871
00679  12CC              ;********************************
00680  12CC  48          XX0ACC PHA 
00681  12CD  20 22 13           JSR XX0B22
00682  12D0  68                 PLA 
00683  12D1  A2 00              LDX #$00
00684  12D3  8E 4C 10           STX XX084C
00685  12D6  F0 07              BEQ XX0ADF
00686  12D8  20 CF FF    XX0AD8 JSR CHRIN
00687  12DB  C9 20              CMP #$20        ;' '
00688  12DD  F0 17              BEQ XX0AF6
00689  12DF  C9 0D       XX0ADF CMP #$0D
00690  12E1  F0 13              BEQ XX0AF6
00691  12E3  AE 4C 10           LDX XX084C
00692  12E6  E0 12              CPX #$12
00693  12E8  F0 B4              BEQ XX0A9E
00694  12EA  9D 3A 10           STA XX083A,X
00695  12ED  E8                 INX 
00696  12EE  8E 4C 10           STX XX084C
00697  12F1  8E 4A 10           STX XX084A
00698  12F4  D0 E2              BNE XX0AD8
00699  12F6  A9 2C       XX0AF6 LDA #$2C        ;','
00700  12F8  9D 3A 10           STA XX083A,X
00701  12FB  E8                 INX 
00702  12FC  A9 53              LDA #$53        ;'S'
00703  12FE  9D 3A 10           STA XX083A,X
00704  1301  E8                 INX 
00705  1302  8E 4A 10           STX XX084A
00706  1305              ; PRINT CR
00707  1305  A9 2A              LDA #>AA22DA    ;#$22      ;'"'
00708  1307  A0 DA              LDY #<AA22DA    ;#$DA
00709  1309  20 68 14           JSR XX0C68
00710  130C  20 41 13           JSR XX0B41
00711  130F  20 5F 13           JSR XX0B5F
00712  1312              ; PRINT PASS 1
00713  1312  A9 2A              LDA #>AA22D4    ;#$22      ;'"'
00714  1314  A0 D4              LDY #<AA22D4    ;#$D4
00715  1316  20 68 14           JSR XX0C68
00716  1319  20 93 14           JSR XX0C93
00717  131C  20 21 25           JSR XX1D21






ASSEMBLERP64......PAGE 0015

LINE# LOC   CODE        LINE


00718  131F  4C AF 14           JMP XX0CAF
00719  1322              ;********************************
00720  1322  A9 07       XX0B22 LDA #$07
00721  1324  A2 08              LDX #$08
00722  1326  A0 0F              LDY #$0F
00723  1328  20 BA FF           JSR SETLFS
00724  132B  A9 49              LDA #$49        ;'I'
00725  132D  8D 08 11           STA XX0908
00726  1330  A9 30              LDA #$30        ;'0'
00727  1332  8D 09 11           STA XX0909
00728  1335  A0 11              LDY #>XX0908    ;#$09
00729  1337  A2 08              LDX #<XX0908    ;#$08
00730  1339  A9 02              LDA #$02
00731  133B  20 BD FF           JSR SETNAM
00732  133E  4C C0 FF           JMP OPEN
00733  1341              ;********************************
00734  1341  A9 02       XX0B41 LDA #$02
00735  1343  A8                 TAY 
00736  1344  A2 08              LDX #$08
00737  1346  20 BA FF           JSR SETLFS
00738  1349  A0 10              LDY #>XX083A    ;#$08
00739  134B  A2 3A              LDX #<XX083A    ;#$3A      ;':'
00740  134D  AD 4A 10           LDA XX084A
00741  1350  20 BD FF           JSR SETNAM
00742  1353  20 C0 FF           JSR OPEN
00743  1356  20 FE 2F           JSR XX27FE
00744  1359  A9 80              LDA #$80
00745  135B  8D 7F 10           STA XX087F
00746  135E  60                 RTS 
00747  135F              ;********************************
00748  135F              ; VIC-II CONTROL - SCREEN OFF
00749  135F              ;********************************
00750  135F  AD 73 10    XX0B5F LDA XX0873
00751  1362  10 08              BPL XX0B6C
00752  1364  AD 06 FF           LDA SCROLY
00753  1367  29 EF              AND #$EF
00754  1369  8D 06 FF           STA SCROLY
00755  136C  60          XX0B6C RTS 
00756  136D              ;********************************
00757  136D              ; VIC-II CONTROL - SCREEN ON
00758  136D              ;********************************
00759  136D  AD 06 FF    XX0B6D LDA SCROLY
00760  1370  09 10              ORA #$10
00761  1372  8D 06 FF           STA SCROLY
00762  1375  60                 RTS 
00763  1376              ;********************************
00764  1376  20 CC FF    XX0B76 JSR CLRCHN
00765  1379  AD 38 10           LDA XX0838
00766  137C  D0 03              BNE XX0B81
00767  137E  4C F9 13           JMP XX0BF9
00768  1381              ;********************************
00769  1381  A9 08       XX0B81 LDA #$08
00770  1383  AA                 TAX 
00771  1384  A8                 TAY 
00772  1385  20 BA FF           JSR SETLFS






ASSEMBLERP64......PAGE 0016

LINE# LOC   CODE        LINE


00773  1388              ; 0:XRLL0000,S,W      
00774  1388  A0 2B              LDY #>AA23DD    ; #$23      ;'#'
00775  138A  A2 DD              LDX #<AA23DD    ; #$DD
00776  138C  A9 0E              LDA #$0E
00777  138E  20 BD FF           JSR SETNAM
00778  1391  20 C0 FF           JSR OPEN
00779  1394  20 FE 2F           JSR XX27FE
00780  1397  20 CC FF           JSR CLRCHN
00781  139A  A2 08              LDX #$08
00782  139C  8E 39 10           STX XX0839
00783  139F  20 C9 FF           JSR CHKOUT
00784  13A2  A5 0E              LDA $0E
00785  13A4  A4 0F              LDY $0F
00786  13A6  85 16              STA $16
00787  13A8  84 17              STY $17
00788  13AA  AD 4E 10           LDA XX084E
00789  13AD  AC 4D 10           LDY XX084D
00790  13B0  85 1C              STA $1C
00791  13B2  84 1D              STY $1D
00792  13B4  A0 00       XX0BB4 LDY #$00
00793  13B6  B1 16       XX0BB6 LDA ($16),Y
00794  13B8  20 D2 FF           JSR CHROUT
00795  13BB  C8                 INY 
00796  13BC  C0 08              CPY #$08
00797  13BE  D0 F6              BNE XX0BB6
00798  13C0  A5 1C              LDA $1C
00799  13C2  D0 02              BNE XX0BC6
00800  13C4  C6 1D              DEC $1D
00801  13C6  C6 1C       XX0BC6 DEC $1C
00802  13C8  A5 1C              LDA $1C
00803  13CA  05 1D              ORA $1D
00804  13CC  F0 0C              BEQ XX0BDA
00805  13CE  98                 TYA 
00806  13CF  18                 CLC 
00807  13D0  65 16              ADC $16
00808  13D2  85 16              STA $16
00809  13D4  90 DE              BCC XX0BB4
00810  13D6  E6 17              INC $17
00811  13D8  D0 DA              BNE XX0BB4
00812  13DA  20 CC FF    XX0BDA JSR CLRCHN
00813  13DD  A9 08              LDA #$08
00814  13DF  20 C3 FF           JSR CLOSE
00815  13E2  A9 09              LDA #$09
00816  13E4  A8                 TAY 
00817  13E5  A2 08              LDX #$08
00818  13E7  20 BA FF           JSR SETLFS
00819  13EA              ; 0:XRFF0000,S,W       
00820  13EA  A0 2B              LDY #>AA23EB    ;#$23      ;'#'
00821  13EC  A2 EB              LDX #<AA23EB    ;#$EB
00822  13EE  A9 0E              LDA #$0E
00823  13F0  20 BD FF           JSR SETNAM
00824  13F3  20 C0 FF           JSR OPEN
00825  13F6  20 FE 2F           JSR XX27FE
00826  13F9  20 2C 14    XX0BF9 JSR XX0C2C
00827  13FC  20 F2 30           JSR XX28F2






ASSEMBLERP64......PAGE 0017

LINE# LOC   CODE        LINE


00828  13FF              ; PRINT PASS 2
00829  13FF  A9 2A              LDA #>AA22DB    ;#$22      ;'"'
00830  1401  A0 DB              LDY #<AA22DB    ;#$DB
00831  1403  20 68 14           JSR XX0C68
00832  1406  AD 74 11           LDA XX0974
00833  1409  D0 18              BNE XX0C23
00834  140B              ;********************************
00835  140B              ; OPEN OBJECT FILE FOR OUTPUT
00836  140B              ;********************************
00837  140B  AD 73 11           LDA XX0973
00838  140E  A0 11              LDY #>XX0961    ;#$09
00839  1410  A2 61              LDX #<XX0961    ;#$61
00840  1412  20 BD FF           JSR SETNAM
00841  1415  A9 06              LDA #$06
00842  1417  A8                 TAY 
00843  1418  A2 08              LDX #$08
00844  141A  20 BA FF           JSR SETLFS
00845  141D  20 C0 FF           JSR OPEN
00846  1420  20 FE 2F           JSR XX27FE
00847  1423              ;********************************
00848  1423              ;
00849  1423              ;********************************
00850  1423              ;XX0C23 JSR XX0C93
00851  1423  20          XX0C23 .BYTE $20
00852  1424  93          XX0C24 .BYTE <XX0C93   ;$93
00853  1425  14          XX0C25 .BYTE >XX0C93   ;$0C
00854  1426  20 41 13           JSR XX0B41
00855  1429  4C AF 14           JMP XX0CAF
00856  142C              ;********************************
00857  142C  A9 00       XX0C2C LDA #$00
00858  142E  85 06              STA $06
00859  1430  85 07              STA $07
00860  1432  8D 67 10           STA XX0867
00861  1435  8D 68 10           STA XX0868
00862  1438  8D 59 10           STA XX0859
00863  143B  8D 8F 11           STA XX098F
00864  143E  A9 0D              LDA #$0D
00865  1440  8D 4B 10           STA XX084B
00866  1443  A9 DC              LDA #$DC
00867  1445  8D 74 10           STA XX0874
00868  1448              ; SOME FIND OF OFFSET       
00869  1448  A0 9C              LDY #$9C
00870  144A  A2 00              LDX #$00
00871  144C  8E 78 11           STX XX0978
00872  144F  8C 79 11           STY XX0979
00873  1452  8E 85 11           STX XX0985
00874  1455  8C 86 11           STY XX0986
00875  1458  A9 30              LDA #$30        ;'0'
00876  145A  A0 03              LDY #$03
00877  145C  99 89 11    XX0C5C STA XX0989,Y
00878  145F  88                 DEY 
00879  1460  D0 FA              BNE XX0C5C
00880  1462  A9 4C              LDA #$4C        ;'L'
00881  1464  8D 89 11           STA XX0989
00882  1467  60                 RTS 






ASSEMBLERP64......PAGE 0018

LINE# LOC   CODE        LINE


00883  1468              ;********************************
00884  1468              ; PRINT STRING WITH HIGH BIT SET IN LAST BYTE
00885  1468              ;********************************
00886  1468  48          XX0C68 PHA 
00887  1469  A9 01              LDA #$01
00888  146B  CD 39 10           CMP XX0839
00889  146E  F0 0F              BEQ XX0C7F
00890  1470  98                 TYA 
00891  1471  48                 PHA 
00892  1472  20 CC FF           JSR CLRCHN
00893  1475  A2 01              LDX #$01
00894  1477  8E 39 10           STX XX0839
00895  147A  20 C9 FF           JSR CHKOUT
00896  147D  68                 PLA 
00897  147E  A8          XX0C7E TAY 
00898  147F  68          XX0C7F PLA 
00899  1480  85 09              STA $09
00900  1482  84 08              STY $08
00901  1484  A0 00              LDY #$00
00902  1486  B1 08       XX0C86 LDA ($08),Y
00903  1488  C8                 INY 
00904  1489  48                 PHA 
00905  148A  29 7F              AND #$7F
00906  148C  20 D2 FF           JSR CHROUT
00907  148F  68                 PLA 
00908  1490  10 F4              BPL XX0C86
00909  1492  60                 RTS 
00910  1493              ;********************************
00911  1493  A0 13       XX0C93 LDY #$13
00912  1495  A9 20              LDA #$20        ;' '
00913  1497  99 D0 10    XX0C97 STA XX08D0,Y
00914  149A  88                 DEY 
00915  149B  10 FA              BPL XX0C97
00916  149D  AE 4A 10           LDX XX084A
00917  14A0  CA                 DEX 
00918  14A1  CA                 DEX 
00919  14A2  8E 59 10           STX XX0859
00920  14A5  BD 39 10    XX0CA5 LDA XX0839,X
00921  14A8  9D CF 10           STA XX08CF,X
00922  14AB  CA                 DEX 
00923  14AC  D0 F7              BNE XX0CA5
00924  14AE  60                 RTS 
00925  14AF              ;********************************
00926  14AF  20 D7 2F    XX0CAF JSR XX27D7
00927  14B2  A9 00              LDA #$00
00928  14B4  8D 62 10           STA XX0862
00929  14B7  8D 75 10           STA XX0875
00930  14BA  8D 69 10           STA XX0869
00931  14BD  8D 6A 10           STA XX086A
00932  14C0  8D 71 10           STA XX0871
00933  14C3  8D 77 10           STA XX0877
00934  14C6  8D 6B 10           STA XX086B
00935  14C9  8D 6C 10           STA XX086C
00936  14CC  8D 6D 10           STA XX086D
00937  14CF  8D 61 10           STA XX0861






ASSEMBLERP64......PAGE 0019

LINE# LOC   CODE        LINE


00938  14D2  8D 63 10           STA XX0863
00939  14D5  8D 64 10           STA XX0864
00940  14D8  8D 65 10           STA XX0865
00941  14DB  8D 6E 10           STA XX086E
00942  14DE  AD 4B 10           LDA XX084B
00943  14E1  F0 05              BEQ XX0CE8
00944  14E3              ;       JSR XX0CEB
00945  14E3  20          XX0CE3 .BYTE $20
00946  14E4  EB          XX0CE4 .BYTE <XX0CEB   ;$EB
00947  14E5  14          XX0CE5 .BYTE >XX0CEB   ;$0C
00948  14E6  90 27              BCC XX0D0F
00949  14E8  4C 35 19    XX0CE8 JMP XX1135
00950  14EB              ;********************************
00951  14EB  A2 00       XX0CEB LDX #$00
00952  14ED  EE 68 10           INC XX0868
00953  14F0  D0 03              BNE XX0CF5
00954  14F2  EE 67 10           INC XX0867
00955  14F5  20 5F 2E    XX0CF5 JSR XX265F
00956  14F8  C9 0D              CMP #$0D
00957  14FA  F0 0D              BEQ XX0D09
00958  14FC  C9 00              CMP #$00
00959  14FE  D0 02              BNE XX0D02
00960  1500  38                 SEC 
00961  1501  60                 RTS 
00962  1502              ;********************************
00963  1502  9D 80 10    XX0D02 STA XX0880,X
00964  1505  E8                 INX 
00965  1506  4C F5 14           JMP XX0CF5
00966  1509              ;********************************
00967  1509  CA          XX0D09 DEX 
00968  150A  8E 77 10           STX XX0877
00969  150D  18                 CLC 
00970  150E  60                 RTS 
00971  150F              ;********************************
00972  150F  20 D1 1D    XX0D0F JSR XX15D1
00973  1512  90 11              BCC XX0D25
00974  1514  AE 6E 10           LDX XX086E
00975  1517  BD 80 10           LDA XX0880,X
00976  151A  C9 3E              CMP #$3E        ;'>'
00977  151C  D0 03              BNE XX0D21
00978  151E  4C CB 1D           JMP XX15CB
00979  1521              ;********************************
00980  1521  C9 3B       XX0D21 CMP #$3B        ;';'
00981  1523  D0 03              BNE XX0D28
00982  1525  4C C4 1D    XX0D25 JMP XX15C4
00983  1528              ;********************************
00984  1528  20 F5 1D    XX0D28 JSR XX15F5
00985  152B  B0 09              BCS XX0D36
00986  152D  A9 03              LDA #$03
00987  152F  AE 69 10           LDX XX0869
00988  1532  A8                 TAY 
00989  1533  4C C8 1D           JMP XX15C8
00990  1536              ;********************************
00991  1536  AE 69 10    XX0D36 LDX XX0869
00992  1539  BD 80 10           LDA XX0880,X






ASSEMBLERP64......PAGE 0020

LINE# LOC   CODE        LINE


00993  153C  C9 2E              CMP #$2E        ;'.'
00994  153E  D0 03              BNE XX0D43
00995  1540  4C DD 16           JMP XX0EDD
00996  1543              ;********************************
00997  1543  C9 2A       XX0D43 CMP #$2A        ;'*'
00998  1545  D0 03              BNE XX0D4A
00999  1547  4C 1B 16           JMP XX0E1B
01000  154A              ;********************************
01001  154A              ;XX0D4A LDY XX086B
01002  154A  AC          XX0D4A .BYTE $AC
01003  154B  6B          XX0D4B .BYTE <XX086B   ;$6B
01004  154C  10          XX0D4C .BYTE >XX086B   ;$08 
01005  154D  C0 06              CPY #$06
01006  154F  F0 09              BEQ XX0D5A
01007  1551  90 07              BCC XX0D5A
01008  1553  A9 09              LDA #$09
01009  1555  A0 03              LDY #$03
01010  1557  4C C8 1D           JMP XX15C8
01011  155A              ;********************************
01012  155A  8C 56 10    XX0D5A STY XX0856
01013  155D  20 8F 1E           JSR XX168F
01014  1560  B0 07              BCS XX0D69
01015  1562  A9 10              LDA #$10
01016  1564  A0 03              LDY #$03
01017  1566  4C C8 1D           JMP XX15C8
01018  1569              ;********************************
01019  1569  AD 6B 10    XX0D69 LDA XX086B
01020  156C  C9 03              CMP #$03
01021  156E  D0 08              BNE XX0D78
01022  1570  20 33 23           JSR XX1B33
01023  1573  90 03              BCC XX0D78
01024  1575  4C 9A 1A           JMP XX129A
01025  1578              ;********************************
01026  1578  AE 6E 10    XX0D78 LDX XX086E
01027  157B              ;       JSR XX1675
01028  157B  20          XX0D7B .BYTE $20
01029  157C  75          XX0D7C .BYTE <XX1675   ;$75
01030  157D  1E          XX0D7D .BYTE >XX1675   ;$16
01031  157E  B0 07              BCS XX0D87
01032  1580  A9 08              LDA #$08
01033  1582  A0 03              LDY #$03
01034  1584  4C C8 1D           JMP XX15C8
01035  1587              ;********************************
01036  1587  20 CB 35    XX0D87 JSR XX2DCB
01037  158A  8E 61 10           STX XX0861
01038  158D  A2 00              LDX #$00
01039  158F  BD 08 11    XX0D8F LDA XX0908,X
01040  1592  48                 PHA 
01041  1593  E8                 INX 
01042  1594  E0 06              CPX #$06
01043  1596  D0 F7              BNE XX0D8F
01044  1598  AD 6B 10           LDA XX086B
01045  159B  48                 PHA 
01046  159C  AD 6A 10           LDA XX086A
01047  159F  8D 6E 10           STA XX086E






ASSEMBLERP64......PAGE 0021

LINE# LOC   CODE        LINE


01048  15A2  EE 6E 10           INC XX086E
01049  15A5  20 D1 1D           JSR XX15D1
01050  15A8  90 11              BCC XX0DBB
01051  15AA  BD 80 10           LDA XX0880,X
01052  15AD  C9 3D              CMP #$3D        ;'='
01053  15AF  D0 0A              BNE XX0DBB
01054  15B1  AD 63 10           LDA XX0863
01055  15B4  D0 3E              BNE XX0DF4
01056  15B6  EE 63 10           INC XX0863
01057  15B9  D0 7A              BNE XX0E35
01058  15BB  20 F8 21    XX0DBB JSR XX19F8
01059  15BE  90 2F              BCC XX0DEF
01060  15C0  AD 53 10           LDA XX0853
01061  15C3  C5 07              CMP $07
01062  15C5  D0 07              BNE XX0DCE
01063  15C7  AD 54 10           LDA XX0854
01064  15CA  C5 06              CMP $06
01065  15CC  F0 3F              BEQ XX0E0D
01066  15CE  AD 53 10    XX0DCE LDA XX0853
01067  15D1  2D 54 10           AND XX0854
01068  15D4  C9 FF              CMP #$FF
01069  15D6  D0 0D              BNE XX0DE5
01070  15D8  20 55 33           JSR XX2B55
01071  15DB  90 03              BCC XX0DE0
01072  15DD  4C 89 33           JMP XX2B89
01073  15E0              ;********************************
01074  15E0  AD 66 10    XX0DE0 LDA XX0866
01075  15E3  D0 28              BNE XX0E0D
01076  15E5  A9 02       XX0DE5 LDA #$02
01077  15E7  A0 03              LDY #$03
01078  15E9  AE 61 10           LDX XX0861
01079  15EC  4C C8 1D           JMP XX15C8
01080  15EF              ;********************************
01081  15EF  AD 63 10    XX0DEF LDA XX0863
01082  15F2  F0 09              BEQ XX0DFD
01083  15F4  A9 03       XX0DF4 LDA #$03
01084  15F6  A8                 TAY 
01085  15F7  AE 69 10           LDX XX0869
01086  15FA  4C C8 1D           JMP XX15C8
01087  15FD              ;********************************
01088  15FD  EE 63 10    XX0DFD INC XX0863
01089  1600  A5 07              LDA $07
01090  1602  8D 53 10           STA XX0853
01091  1605  A5 06              LDA $06
01092  1607  8D 54 10           STA XX0854
01093  160A  20 CC 22           JSR XX1ACC
01094  160D  AD 77 10    XX0E0D LDA XX0877
01095  1610  CD 6E 10           CMP XX086E
01096  1613  B0 03              BCS XX0E18
01097  1615  4C C4 1D           JMP XX15C4
01098  1618              ;********************************
01099  1618  4C 0F 15    XX0E18 JMP XX0D0F
01100  161B              ;********************************
01101  161B  A9 FF       XX0E1B LDA #$FF
01102  161D  8D 64 10           STA XX0864






ASSEMBLERP64......PAGE 0022

LINE# LOC   CODE        LINE


01103  1620  EE 6E 10           INC XX086E
01104  1623  8E 61 10           STX XX0861
01105  1626  20 D1 1D           JSR XX15D1
01106  1629  B0 03              BCS XX0E2E
01107  162B  4C 9C 1D    XX0E2B JMP XX159C
01108  162E              ;********************************
01109  162E              ;********************************
01110  162E              ;.END
01111  162E              ;*=$0E2E
01112  162E              ;********************************
01113  162E  BD 80 10    XX0E2E LDA XX0880,X
01114  1631  C9 3D              CMP #$3D        ;'='
01115  1633  D0 F6              BNE XX0E2B
01116  1635  EE 6E 10    XX0E35 INC XX086E
01117  1638  AD 6E 10           LDA XX086E
01118  163B  CD 77 10           CMP XX0877
01119  163E  F0 05              BEQ XX0E45
01120  1640  90 03              BCC XX0E45
01121  1642  4C 9C 1D           JMP XX159C
01122  1645              ;********************************
01123  1645  20 D1 1D    XX0E45 JSR XX15D1
01124  1648  B0 0A              BCS XX0E54
01125  164A  AE 6A 10           LDX XX086A
01126  164D  A9 07              LDA #$07
01127  164F  A0 00              LDY #$00
01128  1651  4C C8 1D           JMP XX15C8
01129  1654              ;********************************
01130  1654  20 BC 1E    XX0E54 JSR XX16BC
01131  1657  CE 57 10           DEC XX0857
01132  165A  30 10              BMI XX0E6C
01133  165C  D0 07              BNE XX0E65
01134  165E  A9 11              LDA #$11
01135  1660  A0 03              LDY #$03
01136  1662  4C C8 1D           JMP XX15C8
01137  1665              ;********************************
01138  1665  A9 13       XX0E65 LDA #$13
01139  1667  A0 03              LDY #$03
01140  1669  4C C8 1D           JMP XX15C8
01141  166C              ;********************************
01142  166C  AD 64 10    XX0E6C LDA XX0864
01143  166F  F0 2E              BEQ XX0E9F
01144  1671  A9 01              LDA #$01
01145  1673  2D 75 10           AND XX0875
01146  1676  F0 13              BEQ XX0E8B
01147  1678  A2 00              LDX #$00
01148  167A  86 06              STX $06
01149  167C  86 07              STX $07
01150  167E  AE 69 10           LDX XX0869
01151  1681  A9 21              LDA #$21        ;'!'
01152  1683  A0 FF              LDY #$FF
01153  1685  20 68 23           JSR XX1B68
01154  1688  4C CB 1D           JMP XX15CB
01155  168B              ;********************************
01156  168B  A2 00       XX0E8B LDX #$00
01157  168D  8A                 TXA 






ASSEMBLERP64......PAGE 0023

LINE# LOC   CODE        LINE


01158  168E  A8                 TAY 
01159  168F  20 68 23           JSR XX1B68
01160  1692  AD 6C 10           LDA XX086C
01161  1695  85 07              STA $07
01162  1697  AD 6D 10           LDA XX086D
01163  169A  85 06              STA $06
01164  169C  4C CB 1D           JMP XX15CB
01165  169F              ;********************************
01166  169F  68          XX0E9F PLA 
01167  16A0  8D 6B 10           STA XX086B
01168  16A3  A2 05              LDX #$05
01169  16A5  68          XX0EA5 PLA 
01170  16A6  9D 08 11           STA XX0908,X
01171  16A9  CA                 DEX 
01172  16AA  10 F9              BPL XX0EA5
01173  16AC  20 F8 21           JSR XX19F8
01174  16AF  90 1A              BCC XX0ECB
01175  16B1  AD 53 10           LDA XX0853
01176  16B4  CD 6C 10           CMP XX086C
01177  16B7  D0 08              BNE XX0EC1
01178  16B9  AD 54 10           LDA XX0854
01179  16BC  CD 6D 10           CMP XX086D
01180  16BF  F0 19              BEQ XX0EDA
01181  16C1  AE 61 10    XX0EC1 LDX XX0861
01182  16C4  A9 02              LDA #$02
01183  16C6  A0 00              LDY #$00
01184  16C8  4C C8 1D           JMP XX15C8
01185  16CB              ;********************************
01186  16CB  AD 6C 10    XX0ECB LDA XX086C
01187  16CE  8D 53 10           STA XX0853
01188  16D1  AD 6D 10           LDA XX086D
01189  16D4  8D 54 10           STA XX0854
01190  16D7  20 CC 22           JSR XX1ACC
01191  16DA  4C C4 1D    XX0EDA JMP XX15C4
01192  16DD              ;********************************
01193  16DD  A9 14       XX0EDD LDA #$14
01194  16DF  8D 71 10           STA XX0871
01195  16E2  AE 69 10           LDX XX0869
01196  16E5  E8                 INX 
01197  16E6              ; ASSEMBLER DIRECTIVE TABLE       
01198  16E6  A9 45              LDA #<AA2045    ;#$45      ;'E'
01199  16E8  85 08              STA $08
01200  16EA  A9 28              LDA #>AA2045    ;#$20      ;' '
01201  16EC  85 09              STA $09
01202  16EE  A9 03              LDA #$03
01203  16F0  8D 56 10           STA XX0856
01204  16F3  20 8F 1E           JSR XX168F
01205  16F6  EC 77 10    XX0EF6 CPX XX0877
01206  16F9  F0 02              BEQ XX0EFD
01207  16FB  B0 0B              BCS XX0F08
01208  16FD  BD 80 10    XX0EFD LDA XX0880,X
01209  1700  C9 20              CMP #$20        ;' '
01210  1702  F0 04              BEQ XX0F08
01211  1704  E8                 INX 
01212  1705  4C F6 16           JMP XX0EF6






ASSEMBLERP64......PAGE 0024

LINE# LOC   CODE        LINE


01213  1708              ;********************************
01214  1708  8E 6E 10    XX0F08 STX XX086E
01215  170B  A9 00              LDA #$00
01216  170D  8D 5A 10           STA XX085A
01217  1710  B0 03              BCS XX0F15
01218  1712  4C A1 1D           JMP XX15A1
01219  1715              ;********************************
01220  1715  A2 19       XX0F15 LDX #$19
01221  1717  A0 02       XX0F17 LDY #$02
01222  1719  B9 08 11    XX0F19 LDA XX0908,Y
01223  171C  D1 08              CMP ($08),Y
01224  171E  D0 16              BNE XX0F36
01225  1720  88                 DEY 
01226  1721  10 F6              BPL XX0F19
01227  1723  8A                 TXA 
01228  1724  0A                 ASL A
01229  1725  AA                 TAX 
01230  1726  BD 11 28           LDA XX2011,X
01231  1729  85 08              STA $08
01232  172B  BD 12 28           LDA XX2012,X
01233  172E  85 09              STA $09
01234  1730  AD 74 10           LDA XX0874
01235  1733  6C 08 00           JMP ($0008)
01236  1736              ;********************************
01237  1736  A5 08       XX0F36 LDA $08
01238  1738  18                 CLC 
01239  1739  69 03              ADC #$03
01240  173B  85 08              STA $08
01241  173D  90 02              BCC XX0F41
01242  173F  E6 09              INC $09
01243  1741  CA          XX0F41 DEX 
01244  1742  10 D3              BPL XX0F17
01245  1744  4C A1 1D           JMP XX15A1
01246  1747              ;********************************
01247  1747  A9 01       WW0F47 LDA #$01
01248  1749                                     ;BIT $03A9
01249  1749  2C          BB0F49 .BYTE $2C
01250  174A  A9          BB0F4A .BYTE $A9       ; LDA 3$03
01251  174B  03                 .BYTE $03
01252  174C              ;
01253  174C                                     ;BIT $02A9
01254  174C  2C          BB0F4C .BYTE $2C
01255  174D  A9          BB0F4D .BYTE $A9       ; LDA #$02
01256  174E  02                 .BYTE $02
01257  174F              ;
01258  174F  8D 65 10           STA XX0865
01259  1752  A0 00              LDY #$00
01260  1754  8C 5A 10           STY XX085A
01261  1757  A8                 TAY 
01262  1758  C0 03              CPY #$03
01263  175A  D0 01              BNE XX0F5D
01264  175C  88                 DEY 
01265  175D  8C 7A 10    XX0F5D STY XX087A
01266  1760  20 D1 1D           JSR XX15D1
01267  1763  B0 08              BCS XX0F6D






ASSEMBLERP64......PAGE 0025

LINE# LOC   CODE        LINE


01268  1765  AE 6A 10           LDX XX086A
01269  1768  A9 07              LDA #$07
01270  176A  4C C8 1D           JMP XX15C8
01271  176D              ;********************************
01272  176D  8C 7A 10    XX0F6D STY XX087A
01273  1770  AE 69 10    XX0F70 LDX XX0869
01274  1773  20 BC 1E           JSR XX16BC
01275  1776  CE 57 10           DEC XX0857
01276  1779  30 35              BMI XX0FB0
01277  177B  F0 03              BEQ XX0F80
01278  177D  4C 2B 18           JMP XX102B
01279  1780              ;********************************
01280  1780  A9 01       XX0F80 LDA #$01
01281  1782  8D 71 10           STA XX0871
01282  1785  C9 01       XX0F85 CMP #$01
01283  1787  D0 09              BNE XX0F92
01284  1789  AC 65 10           LDY XX0865
01285  178C  8C 7A 10           STY XX087A
01286  178F  4C 95 17           JMP XX0F95
01287  1792              ;********************************
01288  1792  AC 7A 10    XX0F92 LDY XX087A
01289  1795  AD 71 10    XX0F95 LDA XX0871
01290  1798  AE 69 10           LDX XX0869
01291  179B  20 68 23           JSR XX1B68
01292  179E  A0 00              LDY #$00
01293  17A0  8C 5A 10           STY XX085A
01294  17A3  AC 7A 10           LDY XX087A
01295  17A6  C0 03              CPY #$03
01296  17A8  D0 59              BNE XX1003
01297  17AA  CE 7A 10           DEC XX087A
01298  17AD  4C 03 18           JMP XX1003
01299  17B0              ;********************************
01300  17B0  A9 04       XX0FB0 LDA #$04
01301  17B2  8D 71 10           STA XX0871
01302  17B5  AE 65 10           LDX XX0865
01303  17B8  E0 03              CPX #$03
01304  17BA  D0 0C              BNE XX0FC8
01305  17BC  AD 6C 10           LDA XX086C
01306  17BF  AC 5A 10           LDY XX085A
01307  17C2  20 90 30           JSR XX2890
01308  17C5  EE 5A 10           INC XX085A
01309  17C8  AD 6D 10    XX0FC8 LDA XX086D
01310  17CB  AC 5A 10           LDY XX085A
01311  17CE  20 90 30           JSR XX2890
01312  17D1  EE 5A 10           INC XX085A
01313  17D4  AE 65 10           LDX XX0865
01314  17D7  E0 02              CPX #$02
01315  17D9  D0 0C              BNE XX0FE7
01316  17DB  AD 6C 10           LDA XX086C
01317  17DE  AC 5A 10           LDY XX085A
01318  17E1  20 90 30           JSR XX2890
01319  17E4  EE 5A 10           INC XX085A
01320  17E7  AD 75 10    XX0FE7 LDA XX0875
01321  17EA  29 09              AND #$09
01322  17EC  D0 97              BNE XX0F85






ASSEMBLERP64......PAGE 0026

LINE# LOC   CODE        LINE


01323  17EE  E0 01              CPX #$01
01324  17F0  D0 05              BNE XX0FF7
01325  17F2  AD 6C 10           LDA XX086C
01326  17F5  D0 8E              BNE XX0F85
01327  17F7  A9 00       XX0FF7 LDA #$00
01328  17F9  AA                 TAX 
01329  17FA  AC 7A 10           LDY XX087A
01330  17FD  8D 5A 10           STA XX085A
01331  1800  20 68 23           JSR XX1B68
01332  1803  20 35 1E    XX1003 JSR XX1635
01333  1806  B0 03              BCS XX100B
01334  1808              ;SELF MOD CODE
01335  1808              ;       JMP XX15CB
01336  1808  4C          XX1008 .BYTE $4C
01337  1809  CB          XX1009 .BYTE <XX15CB   ;$CB
01338  180A  1D          XX100A .BYTE >XX15CB   ;$15
01339  180B              ;********************************
01340  180B  BD 80 10    XX100B LDA XX0880,X
01341  180E  E8                 INX 
01342  180F  8E 6E 10           STX XX086E
01343  1812  EC 77 10           CPX XX0877
01344  1815  F0 05              BEQ XX101C
01345  1817  90 03              BCC XX101C
01346  1819  4C 9C 1D           JMP XX159C
01347  181C              ;********************************
01348  181C  C9 2C       XX101C CMP #$2C        ;','
01349  181E  D0 E3              BNE XX1003
01350  1820  20 D1 1D           JSR XX15D1
01351  1823  B0 03              BCS XX1028
01352  1825  4C 9C 1D           JMP XX159C
01353  1828              ;********************************
01354  1828  4C 70 17    XX1028 JMP XX0F70
01355  182B              ;********************************
01356  182B  BD 80 10    XX102B LDA XX0880,X
01357  182E  C9 27              CMP #$27        ;'''
01358  1830  F0 10              BEQ XX1042
01359  1832  A9 13       XX1032 LDA #$13
01360  1834  AC 7B 10           LDY XX087B
01361  1837  20 68 23           JSR XX1B68
01362  183A  A0 00              LDY #$00
01363  183C  8C 5A 10           STY XX085A
01364  183F  4C 03 18           JMP XX1003
01365  1842              ;********************************
01366  1842  EC 69 10    XX1042 CPX XX0869
01367  1845  D0 EB              BNE XX1032
01368  1847  AC 65 10           LDY XX0865
01369  184A  C0 02              CPY #$02
01370  184C  B0 E4              BCS XX1032
01371  184E  8E 6E 10           STX XX086E
01372  1851  A0 00              LDY #$00
01373  1853  EE 6E 10    XX1053 INC XX086E
01374  1856  AE 6E 10           LDX XX086E
01375  1859  EC 77 10           CPX XX0877
01376  185C  F0 02              BEQ XX1060
01377  185E  B0 45              BCS XX10A5






ASSEMBLERP64......PAGE 0027

LINE# LOC   CODE        LINE


01378  1860  BD 80 10    XX1060 LDA XX0880,X
01379  1863  C9 27              CMP #$27        ;'''
01380  1865  D0 14              BNE XX107B
01381  1867  EE 6E 10           INC XX086E
01382  186A  AE 6E 10           LDX XX086E
01383  186D  EC 77 10           CPX XX0877
01384  1870  F0 02              BEQ XX1074
01385  1872  B0 22              BCS XX1096
01386  1874  BD 80 10    XX1074 LDA XX0880,X
01387  1877  C9 27              CMP #$27        ;'''
01388  1879  D0 1B              BNE XX1096
01389  187B  48          XX107B PHA 
01390  187C  29 7F              AND #$7F
01391  187E  C9 20              CMP #$20        ;' '
01392  1880  90 04              BCC XX1086
01393  1882  C9 60              CMP #$60
01394  1884  90 04              BCC XX108A
01395  1886  68          XX1086 PLA 
01396  1887  A9 00              LDA #$00
01397  1889  48                 PHA 
01398  188A  68          XX108A PLA 
01399  188B  AC 5A 10           LDY XX085A
01400  188E  20 90 30           JSR XX2890
01401  1891  EE 5A 10           INC XX085A
01402  1894  D0 BD              BNE XX1053
01403  1896  AC 5A 10    XX1096 LDY XX085A
01404  1899  A9 00              LDA #$00
01405  189B  8D 5A 10           STA XX085A
01406  189E  AA                 TAX 
01407  189F  20 68 23           JSR XX1B68
01408  18A2  4C 03 18           JMP XX1003
01409  18A5              ;********************************
01410  18A5  AC 5A 10    XX10A5 LDY XX085A
01411  18A8  A9 07              LDA #$07
01412  18AA  4C C8 1D           JMP XX15C8
01413  18AD              ;********************************
01414  18AD  20 D1 1D    XX10AD JSR XX15D1
01415  18B0  B0 03              BCS XX10B5
01416  18B2  4C C4 1D           JMP XX15C4
01417  18B5              ;********************************
01418  18B5  AE 69 10    XX10B5 LDX XX0869
01419  18B8  A9 03              LDA #$03
01420  18BA  8D 56 10           STA XX0856
01421  18BD  20 8F 1E           JSR XX168F
01422  18C0  B0 03              BCS XX10C5
01423  18C2  4C A1 1D           JMP XX15A1
01424  18C5              ;********************************
01425  18C5              ; CODE GENERATION DIRECTIVES
01426  18C5              ;********************************
01427  18C5  A9 6C       XX10C5 LDA #<ZZ206C    ;#$6C
01428  18C7  85 08              STA $08
01429  18C9  A9 28              LDA #>ZZ206C    ;#$20      ;' '
01430  18CB  85 09              STA $09
01431  18CD  A2 0C              LDX #$0C
01432  18CF  4C 17 17           JMP XX0F17






ASSEMBLERP64......PAGE 0028

LINE# LOC   CODE        LINE


01433  18D2              ;********************************
01434  18D2  29 7F       ZZ10D2 AND #$7F
01435  18D4              ;
01436  18D4                                     ;BIT $8009
01437  18D4  2C          BB10D4 .BYTE $2C
01438  18D5  09          BB10D5 .BYTE $09       ; ORA #$80
01439  18D6  80                 .BYTE $80
01440  18D7              ;
01441  18D7                                     ;BIT $4009
01442  18D7  2C          BB10D7 .BYTE $2C
01443  18D8  09          BB10D8 .BYTE $09       ; ORA #$40
01444  18D9  40                 .BYTE $40
01445  18DA              ;
01446  18DA                                     ;BIT $BF29
01447  18DA  2C          BB10DA .BYTE $2C
01448  18DB  29          BB10DB .BYTE $29       ;AND #$BF
01449  18DC  BF                 .BYTE $BF
01450  18DD              ;
01451  18DD                                     ;BIT $DF29
01452  18DD  2C          BB10DD .BYTE $2C
01453  18DE  29          BB10DE .BYTE $29       ; AND #$DF
01454  18DF  DF                 .BYTE $DF
01455  18E0              ;
01456  18E0                                     ;BIT XX2009
01457  18E0  2C          BB10E0 .BYTE $2C
01458  18E1  09          BB10E1 .BYTE $09       ; ORA #$20
01459  18E2  20                 .BYTE $20
01460  18E3              ;
01461  18E3                                     ;BIT XX1009
01462  18E3  2C          BB10E3 .BYTE $2C
01463  18E4  09          BB10E4 .BYTE $09       ; ORA #$10
01464  18E5  10                 .BYTE $10
01465  18E6              ;
01466  18E6                                     ;BIT $EF29
01467  18E6  2C          BB10E6 .BYTE $2C
01468  18E7  29          BB10E7 .BYTE $29       ; AND #$EF
01469  18E8  EF                 .BYTE $EF
01470  18E9              ;
01471  18E9                                     ;BIT XX0809
01472  18E9                                     ;BIT BASIC-3
01473  18E9  2C          BB10E9 .BYTE $2C
01474  18EA  09          BB10EA .BYTE $09       ; ASL #$09
01475  18EB  08                 .BYTE $08
01476  18EC              ;
01477  18EC                                     ;BIT $F729
01478  18EC  2C          BB10EC .BYTE $2C
01479  18ED  29          BB10ED .BYTE $29       ; AND #$F7
01480  18EE  F7                 .BYTE $F7
01481  18EF              ;
01482  18EF                                     ;BIT $0409
01483  18EF  2C          BB10EF .BYTE $2C
01484  18F0  09          BB10F0 .BYTE $09       ; ORA #$04
01485  18F1  04                 .BYTE $04
01486  18F2              ;
01487  18F2                                     ;BIT $FB29






ASSEMBLERP64......PAGE 0029

LINE# LOC   CODE        LINE


01488  18F2  2C          BB10F2 .BYTE $2C
01489  18F3  29          BB10F3 .BYTE $29       ; AND #$FB
01490  18F4  FB                 .BYTE $FB
01491  18F5              ;
01492  18F5  8D 74 10           STA XX0874
01493  18F8  20 35 1E           JSR XX1635
01494  18FB  B0 03              BCS XX1100
01495  18FD  4C CB 1D           JMP XX15CB
01496  1900              ;********************************
01497  1900  BD 80 10    XX1100 LDA XX0880,X
01498  1903  C9 2C              CMP #$2C        ;','
01499  1905  F0 03              BEQ XX110A
01500  1907  4C CB 1D           JMP XX15CB
01501  190A              ;********************************
01502  190A  E8          XX110A INX 
01503  190B  8E 6E 10           STX XX086E
01504  190E  4C AD 18           JMP XX10AD
01505  1911              ;********************************
01506  1911  20 D1 1D    WW1111 JSR XX15D1
01507  1914  B0 03              BCS XX1119
01508  1916  AE 5A 10           LDX XX085A
01509  1919  A9 CC       XX1119 LDA #$CC
01510  191B  A0 00              LDY #$00
01511  191D  4C C8 1D           JMP XX15C8
01512  1920              ;********************************
01513  1920  20 D1 1D    WW1120 JSR XX15D1
01514  1923  90 07              BCC XX112C
01515  1925  BD 80 10           LDA XX0880,X
01516  1928  C9 27              CMP #$27        ;'''
01517  192A  F0 02              BEQ XX112E
01518  192C  A2 00       XX112C LDX #$00
01519  192E  A9 CB       XX112E LDA #$CB
01520  1930  A0 00              LDY #$00
01521  1932  4C C8 1D           JMP XX15C8
01522  1935              ;********************************
01523  1935              ;XX1135 BIT XX087F
01524  1935  2C          XX1135 .BYTE $2C
01525  1936  7F          BB1136 .BYTE <XX087F   ;$7F ; RRA #$08
01526  1937  10                 .BYTE >XX087F   ;$08
01527  1938              ;
01528  1938  70 22              BVS XX115C
01529  193A  A2 FF              LDX #$FF
01530  193C  9A                 TXS 
01531  193D  AE 66 10           LDX XX0866
01532  1940  F0 0F              BEQ XX1151
01533  1942  A9 02              LDA #$02
01534  1944  20 C3 FF           JSR CLOSE
01535  1947  A2 00              LDX #$00
01536  1949  8A                 TXA 
01537  194A  A8                 TAY 
01538  194B  20 68 23           JSR XX1B68
01539  194E  4C 6E 25           JMP XX1D6E
01540  1951              ;********************************
01541  1951  EE 66 10    XX1151 INC XX0866
01542  1954  A9 02              LDA #$02






ASSEMBLERP64......PAGE 0030

LINE# LOC   CODE        LINE


01543  1956  20 C3 FF           JSR CLOSE
01544  1959  4C 76 13           JMP XX0B76
01545  195C              ;********************************
01546  195C  A9 03       XX115C LDA #$03
01547  195E  20 C3 FF           JSR CLOSE
01548  1961  AD 7F 10           LDA XX087F
01549  1964  29 BF              AND #$BF
01550  1966  8D 7F 10           STA XX087F
01551  1969  A2 00       XX1169 LDX #$00
01552  196B  8E 39 10           STX XX0839
01553  196E  A0 00              LDY #$00
01554  1970  A9 CD              LDA #$CD
01555  1972  EE 72 10           INC XX0872
01556  1975  20 68 23           JSR XX1B68
01557  1978  CE 72 10           DEC XX0872
01558  197B  A9 0D              LDA #$0D
01559  197D  8D 4B 10           STA XX084B
01560  1980  4C CB 1D           JMP XX15CB
01561  1983              ;********************************
01562  1983                                     ;BIT XX087F
01563  1983  2C          BB1183 .BYTE $2C
01564  1984  7F          BB1184 .BYTE <XX087F   ;$7F ; RRA #$08
01565  1985  10                 .BYTE >XX087F   ;$08
01566  1986  50 08              BVC XX1190
01567  1988  A9 03              LDA #$03
01568  198A  20 C3 FF           JSR CLOSE
01569  198D  4C 02 1A           JMP XX1202
01570  1990              ;********************************
01571  1990  A9 02       XX1190 LDA #$02
01572  1992  20 C3 FF           JSR CLOSE
01573  1995  20 A9 19           JSR XX11A9
01574  1998  A9 02              LDA #$02
01575  199A  A8                 TAY 
01576  199B  A2 08              LDX #$08
01577  199D  20 BA FF           JSR SETLFS
01578  19A0  20 C0 FF           JSR OPEN
01579  19A3  20 FE 2F           JSR XX27FE
01580  19A6  4C 69 19           JMP XX1169
01581  19A9              ;********************************
01582  19A9  20 D1 1D    XX11A9 JSR XX15D1
01583  19AC  90 24              BCC XX11D2
01584  19AE  A0 00              LDY #$00
01585  19B0  BD 80 10    XX11B0 LDA XX0880,X
01586  19B3  C9 20              CMP #$20        ;' '
01587  19B5  F0 10              BEQ XX11C7
01588  19B7  99 08 11           STA XX0908,Y
01589  19BA  EC 77 10           CPX XX0877
01590  19BD  F0 08              BEQ XX11C7
01591  19BF  C8                 INY 
01592  19C0  E8                 INX 
01593  19C1  C0 12              CPY #$12
01594  19C3  D0 EB              BNE XX11B0
01595  19C5  F0 0B              BEQ XX11D2
01596  19C7  A9 0D       XX11C7 LDA #$0D
01597  19C9  C8                 INY 






ASSEMBLERP64......PAGE 0031

LINE# LOC   CODE        LINE


01598  19CA  8C 4C 10           STY XX084C
01599  19CD  8D 4B 10           STA XX084B
01600  19D0  D0 0A              BNE XX11DC
01601  19D2              ; PRINT FILENAME ERROR
01602  19D2  A9 2B       XX11D2 LDA #>AA2323    ;#$23      ;'#'
01603  19D4  A0 23              LDY #<AA2323    ;#$23      ;'#'
01604  19D6  20 68 14           JSR XX0C68
01605  19D9  4C AD 2F           JMP XX27AD
01606  19DC              ;********************************
01607  19DC  AE 4C 10    XX11DC LDX XX084C
01608  19DF  A9 2C              LDA #$2C        ;','
01609  19E1  9D 08 11           STA XX0908,X
01610  19E4  E8                 INX 
01611  19E5  A9 53              LDA #$53        ;'S'
01612  19E7  9D 08 11           STA XX0908,X
01613  19EA  E8                 INX 
01614  19EB  8A                 TXA 
01615  19EC  A0 11              LDY #>XX0908    ;#$09
01616  19EE  A2 08              LDX #<XX0908    ;#$08
01617  19F0  4C BD FF           JMP SETNAM
01618  19F3              ;********************************
01619  19F3                                     ;BIT XX087F
01620  19F3  2C          BB11F3 .BYTE $2C
01621  19F4  7F          BB11F4 .BYTE <XX087F   ;$7F ;RRA #$08
01622  19F5  10                 .BYTE >XX087F   ;$08
01623  19F6  50 0A              BVC XX1202
01624  19F8              ;********************************
01625  19F8              ; PRINT .LIB ERROR
01626  19F8              ;********************************
01627  19F8  A9 2B              LDA #>AA2334    ;#$23      ;'#'
01628  19FA  A0 34              LDY #<AA2334    ;#$34      ;'4'
01629  19FC  20 68 14           JSR XX0C68
01630  19FF  4C AD 2F           JMP XX27AD
01631  1A02              ;********************************
01632  1A02  20 A9 19    XX1202 JSR XX11A9
01633  1A05  A9 03              LDA #$03
01634  1A07  A8                 TAY 
01635  1A08  A2 08              LDX #$08
01636  1A0A  20 BA FF           JSR SETLFS
01637  1A0D  20 C0 FF           JSR OPEN
01638  1A10  20 FE 2F           JSR XX27FE
01639  1A13  A9 40              LDA #$40        ;'@'
01640  1A15  0D 7F 10           ORA XX087F
01641  1A18  8D 7F 10           STA XX087F
01642  1A1B  4C 69 19           JMP XX1169
01643  1A1E              ;********************************
01644  1A1E  A9 FF       WW121E LDA #$FF
01645  1A20              ;ERR - ASSEMBLES AS ZERO PAGE
01646  1A20              ;       BIT $00A9
01647  1A20  2C          BB1220 .BYTE $2C
01648  1A21  A9          BB1221 .BYTE $A9       ; LDA #$00
01649  1A22  00                 .BYTE $00
01650  1A23  8D 75 11           STA XX0975
01651  1A26  20 D1 1D           JSR XX15D1
01652  1A29  90 57              BCC XX1282






ASSEMBLERP64......PAGE 0032

LINE# LOC   CODE        LINE


01653  1A2B  8C 7A 10           STY XX087A
01654  1A2E  AE 69 10           LDX XX0869
01655  1A31  20 BC 1E           JSR XX16BC
01656  1A34  CE 57 10           DEC XX0857
01657  1A37  30 05              BMI XX123E
01658  1A39  F0 3C              BEQ XX1277
01659  1A3B  4C 85 1A           JMP XX1285
01660  1A3E              ;********************************
01661  1A3E  8E 6E 10    XX123E STX XX086E
01662  1A41  20 D1 1D           JSR XX15D1
01663  1A44  90 3C              BCC XX1282
01664  1A46  C9 3C              CMP #$3C        ;'<'
01665  1A48  F0 03              BEQ XX124D
01666  1A4A  4C 82 1A           JMP XX1282
01667  1A4D              ;********************************
01668  1A4D  A0 FF       XX124D LDY #$FF
01669  1A4F  AD 6C 10           LDA XX086C
01670  1A52  0D 6D 10           ORA XX086D
01671  1A55  F0 02              BEQ XX1259
01672  1A57  A0 00              LDY #$00
01673  1A59  98          XX1259 TYA 
01674  1A5A  4D 75 11           EOR XX0975
01675  1A5D  D0 15              BNE XX1274
01676  1A5F  20 8F 1A    XX125F JSR XX128F
01677  1A62  C9 0D              CMP #$0D
01678  1A64  D0 F9              BNE XX125F
01679  1A66  20 8F 1A           JSR XX128F
01680  1A69  C9 3E              CMP #$3E        ;'>'
01681  1A6B  D0 F2              BNE XX125F
01682  1A6D  20 8F 1A    XX126D JSR XX128F
01683  1A70  C9 0D              CMP #$0D
01684  1A72  D0 F9              BNE XX126D
01685  1A74  4C CB 1D    XX1274 JMP XX15CB
01686  1A77              ;********************************
01687  1A77  AD 66 10    XX1277 LDA XX0866
01688  1A7A  D0 03              BNE XX127F
01689  1A7C  A9 0B              LDA #$0B
01690  1A7E              ;********************************
01691  1A7E  2C                 .BYTE $2C
01692  1A7F              ;********************************
01693  1A7F  A9 01       XX127F LDA #$01
01694  1A81              ;********************************
01695  1A81  2C                 .BYTE $2C
01696  1A82              ;********************************
01697  1A82  A9 07       XX1282 LDA #$07
01698  1A84              ;********************************
01699  1A84  2C                 .BYTE $2C
01700  1A85              ;********************************
01701  1A85  A9 0D       XX1285 LDA #$0D
01702  1A87  AE 6A 10           LDX XX086A
01703  1A8A  A0 00              LDY #$00
01704  1A8C  4C C8 1D           JMP XX15C8
01705  1A8F              ;********************************
01706  1A8F  20 5F 2E    XX128F JSR XX265F
01707  1A92  C9 00              CMP #$00






ASSEMBLERP64......PAGE 0033

LINE# LOC   CODE        LINE


01708  1A94  F0 01              BEQ XX1297
01709  1A96  60                 RTS 
01710  1A97              ;********************************
01711  1A97  4C 35 19    XX1297 JMP XX1135
01712  1A9A              ;********************************
01713  1A9A  A0 00       XX129A LDY #$00
01714  1A9C  8C 5D 10           STY XX085D
01715  1A9F  8C 70 10           STY XX0870
01716  1AA2  8C 5E 10           STY XX085E
01717  1AA5  AD 52 10           LDA XX0852
01718  1AA8  C9 14              CMP #$14
01719  1AAA  D0 10              BNE XX12BC
01720  1AAC  A0 00       XX12AC LDY #$00
01721  1AAE  AD 51 10           LDA XX0851
01722  1AB1  20 90 30           JSR XX2890
01723  1AB4  A2 00              LDX #$00
01724  1AB6  A0 01              LDY #$01
01725  1AB8  8A                 TXA 
01726  1AB9  4C C8 1D           JMP XX15C8
01727  1ABC              ;********************************
01728  1ABC  C9 15       XX12BC CMP #$15
01729  1ABE  D0 0A              BNE XX12CA
01730  1AC0  A9 0E              LDA #$0E
01731  1AC2  8D 52 10           STA XX0852
01732  1AC5  A9 07              LDA #$07
01733  1AC7  8D 71 10           STA XX0871
01734  1ACA  AD 6A 10    XX12CA LDA XX086A
01735  1ACD  8D 6E 10           STA XX086E
01736  1AD0  EE 6E 10           INC XX086E
01737  1AD3  20 D1 1D           JSR XX15D1
01738  1AD6  B0 08              BCS XX12E0
01739  1AD8  A9 18              LDA #$18
01740  1ADA  8D 71 10           STA XX0871
01741  1ADD  4C 9C 1D           JMP XX159C
01742  1AE0              ;********************************
01743  1AE0  BD 80 10    XX12E0 LDA XX0880,X
01744  1AE3  C9 3B              CMP #$3B        ;';'
01745  1AE5  D0 03              BNE XX12EA
01746  1AE7  4C A1 1D           JMP XX15A1
01747  1AEA              ;********************************
01748  1AEA  C9 41       XX12EA CMP #$41        ;'A'
01749  1AEC  D0 28              BNE XX1316
01750  1AEE  EC 77 10           CPX XX0877
01751  1AF1  F0 07              BEQ XX12FA
01752  1AF3  BC 81 10           LDY XX0881,X
01753  1AF6  C0 20              CPY #$20        ;' '
01754  1AF8  D0 1C              BNE XX1316
01755  1AFA  AC 52 10    XX12FA LDY XX0852
01756  1AFD  B9 49 29           LDA XX2149,Y
01757  1B00  30 0A              BMI XX130C
01758  1B02  18                 CLC 
01759  1B03  6D 51 10           ADC XX0851
01760  1B06  8D 51 10           STA XX0851
01761  1B09  4C AC 1A           JMP XX12AC
01762  1B0C              ;********************************






ASSEMBLERP64......PAGE 0034

LINE# LOC   CODE        LINE


01763  1B0C  AE 69 10    XX130C LDX XX0869
01764  1B0F  A0 03              LDY #$03
01765  1B11  A9 05              LDA #$05
01766  1B13  4C C8 1D           JMP XX15C8
01767  1B16              ;********************************
01768  1B16  C9 23       XX1316 CMP #$23        ;'#'
01769  1B18  D0 05              BNE XX131F
01770  1B1A  A9 0A              LDA #$0A
01771  1B1C  4C 25 1B           JMP XX1325
01772  1B1F              ;********************************
01773  1B1F  C9 28       XX131F CMP #$28        ;'('
01774  1B21  D0 13              BNE XX1336
01775  1B23  A9 05              LDA #$05
01776  1B25  8D 5D 10    XX1325 STA XX085D
01777  1B28  E8                 INX 
01778  1B29  EE 69 10           INC XX0869
01779  1B2C  EC 77 10           CPX XX0877
01780  1B2F  F0 05              BEQ XX1336
01781  1B31  90 03              BCC XX1336
01782  1B33  4C 9C 1D           JMP XX159C
01783  1B36              ;********************************
01784  1B36  20 BC 1E    XX1336 JSR XX16BC
01785  1B39  8E 60 10           STX XX0860
01786  1B3C  A9 13              LDA #$13
01787  1B3E  8D 71 10           STA XX0871
01788  1B41  CE 57 10           DEC XX0857
01789  1B44  30 58              BMI XX139E
01790  1B46  F0 4E              BEQ XX1396
01791  1B48  AD 5D 10           LDA XX085D
01792  1B4B  C9 0A              CMP #$0A
01793  1B4D  F0 03              BEQ XX1352
01794  1B4F  4C AD 1D           JMP XX15AD
01795  1B52              ;********************************
01796  1B52  BD 80 10    XX1352 LDA XX0880,X
01797  1B55  C9 27              CMP #$27        ;'''
01798  1B57  F0 03              BEQ XX135C
01799  1B59  4C A7 1D           JMP XX15A7
01800  1B5C              ;********************************
01801  1B5C  8A          XX135C TXA 
01802  1B5D  A8                 TAY 
01803  1B5E  E8                 INX 
01804  1B5F  EC 77 10           CPX XX0877
01805  1B62  F0 05              BEQ XX1369
01806  1B64  90 03              BCC XX1369
01807  1B66  4C 9C 1D           JMP XX159C
01808  1B69              ;********************************
01809  1B69  BD 80 10    XX1369 LDA XX0880,X
01810  1B6C  C9 20              CMP #$20        ;' '
01811  1B6E  90 04              BCC XX1374
01812  1B70  C9 60              CMP #$60
01813  1B72  90 02              BCC XX1376
01814  1B74  A9 00       XX1374 LDA #$00
01815  1B76  8D 6D 10    XX1376 STA XX086D
01816  1B79  E8                 INX 
01817  1B7A  EC 77 10           CPX XX0877






ASSEMBLERP64......PAGE 0035

LINE# LOC   CODE        LINE


01818  1B7D  F0 02              BEQ XX1381
01819  1B7F  B0 1D              BCS XX139E
01820  1B81  BD 80 10    XX1381 LDA XX0880,X
01821  1B84  C9 20              CMP #$20        ;' '
01822  1B86  F0 16              BEQ XX139E
01823  1B88  C9 27              CMP #$27        ;'''
01824  1B8A  F0 12              BEQ XX139E
01825  1B8C  98                 TYA 
01826  1B8D  AA                 TAX 
01827  1B8E  A0 03              LDY #$03
01828  1B90  AD 71 10           LDA XX0871
01829  1B93  4C C8 1D           JMP XX15C8
01830  1B96              ;********************************
01831  1B96  EE 5E 10    XX1396 INC XX085E
01832  1B99  A9 02              LDA #$02
01833  1B9B  8D 70 10           STA XX0870
01834  1B9E  20 35 1E    XX139E JSR XX1635
01835  1BA1  90 58              BCC XX13FB
01836  1BA3  BD 80 10           LDA XX0880,X
01837  1BA6  C9 29              CMP #$29        ;')'
01838  1BA8  D0 18              BNE XX13C2
01839  1BAA  EE 5D 10           INC XX085D
01840  1BAD  EE 5D 10           INC XX085D
01841  1BB0  AD 51 10           LDA XX0851
01842  1BB3  C9 4C              CMP #$4C        ;'L'
01843  1BB5  F0 4B              BEQ XX1402
01844  1BB7  E8                 INX 
01845  1BB8  EC 77 10           CPX XX0877
01846  1BBB  F0 05              BEQ XX13C2
01847  1BBD  90 03              BCC XX13C2
01848  1BBF  4C 9C 1D           JMP XX159C
01849  1BC2              ;********************************
01850  1BC2  BD 80 10    XX13C2 LDA XX0880,X
01851  1BC5  C9 2C              CMP #$2C        ;','
01852  1BC7  D0 12              BNE XX13DB
01853  1BC9  AD 51 10           LDA XX0851
01854  1BCC  C9 4C              CMP #$4C        ;'L'
01855  1BCE  F0 3B              BEQ XX140B
01856  1BD0  E8                 INX 
01857  1BD1  EC 77 10           CPX XX0877
01858  1BD4  F0 05              BEQ XX13DB
01859  1BD6  90 03              BCC XX13DB
01860  1BD8  4C 9C 1D           JMP XX159C
01861  1BDB              ;********************************
01862  1BDB  BD 80 10    XX13DB LDA XX0880,X
01863  1BDE  C9 58              CMP #$58        ;'X'
01864  1BE0  D0 06              BNE XX13E8
01865  1BE2  EE 5D 10           INC XX085D
01866  1BE5  4C 34 1C           JMP XX1434
01867  1BE8              ;********************************
01868  1BE8  C9 59       XX13E8 CMP #$59        ;'Y'
01869  1BEA  F0 07              BEQ XX13F3
01870  1BEC  A0 03              LDY #$03
01871  1BEE  A9 12              LDA #$12
01872  1BF0  4C C8 1D           JMP XX15C8






ASSEMBLERP64......PAGE 0036

LINE# LOC   CODE        LINE


01873  1BF3              ;********************************
01874  1BF3  EE 5D 10    XX13F3 INC XX085D
01875  1BF6  EE 5D 10           INC XX085D
01876  1BF9  D0 39              BNE XX1434
01877  1BFB  AD 51 10    XX13FB LDA XX0851
01878  1BFE  C9 4C              CMP #$4C        ;'L'
01879  1C00  D0 32              BNE XX1434
01880  1C02  AD 5D 10    XX1402 LDA XX085D
01881  1C05  F0 1B              BEQ XX1422
01882  1C07  C9 07              CMP #$07
01883  1C09  F0 08              BEQ XX1413
01884  1C0B  A9 18       XX140B LDA #$18
01885  1C0D  8D 71 10           STA XX0871
01886  1C10  4C A7 1D           JMP XX15A7
01887  1C13              ;********************************
01888  1C13  E8          XX1413 INX 
01889  1C14  EC 77 10           CPX XX0877
01890  1C17  30 02              BMI XX141B
01891  1C19  B0 07              BCS XX1422
01892  1C1B  BD 80 10    XX141B LDA XX0880,X
01893  1C1E  C9 20              CMP #$20        ;' '
01894  1C20  D0 E9              BNE XX140B
01895  1C22  AD 5D 10    XX1422 LDA XX085D
01896  1C25  D0 03              BNE XX142A
01897  1C27  4C 2C 1C           JMP XX142C
01898  1C2A              ;********************************
01899  1C2A  A9 20       XX142A LDA #$20        ;' '
01900  1C2C  A0 02       XX142C LDY #$02
01901  1C2E  8C 70 10           STY XX0870
01902  1C31  4C 32 1D           JMP XX1532
01903  1C34              ;********************************
01904  1C34  AD 5E 10    XX1434 LDA XX085E
01905  1C37  F0 03              BEQ XX143C
01906  1C39  4C D1 1C           JMP XX14D1
01907  1C3C              ;********************************
01908  1C3C  AD 52 10    XX143C LDA XX0852
01909  1C3F  C9 0E              CMP #$0E
01910  1C41  D0 47              BNE XX148A
01911  1C43  18                 CLC 
01912  1C44  A5 06              LDA $06
01913  1C46  69 02              ADC #$02
01914  1C48  8D 7C 10           STA XX087C
01915  1C4B  A5 07              LDA $07
01916  1C4D  69 00              ADC #$00
01917  1C4F  8D 7B 10           STA XX087B
01918  1C52  AD 6D 10           LDA XX086D
01919  1C55  38                 SEC 
01920  1C56  ED 7C 10           SBC XX087C
01921  1C59  8D 6D 10           STA XX086D
01922  1C5C  A8                 TAY 
01923  1C5D  AD 6C 10           LDA XX086C
01924  1C60  ED 7B 10           SBC XX087B
01925  1C63  8D 6C 10           STA XX086C
01926  1C66  10 05              BPL XX146D
01927  1C68  98                 TYA 






ASSEMBLERP64......PAGE 0037

LINE# LOC   CODE        LINE


01928  1C69  30 0A              BMI XX1475
01929  1C6B  10 03              BPL XX1470
01930  1C6D  98          XX146D TYA 
01931  1C6E  10 05              BPL XX1475
01932  1C70  A9 17       XX1470 LDA #$17
01933  1C72  8D 71 10           STA XX0871
01934  1C75  AD 6C 10    XX1475 LDA XX086C
01935  1C78  F0 33              BEQ XX14AD
01936  1C7A  C9 FF              CMP #$FF
01937  1C7C  F0 05              BEQ XX1483
01938  1C7E  A9 17              LDA #$17
01939  1C80  8D 71 10           STA XX0871
01940  1C83  A9 00       XX1483 LDA #$00
01941  1C85  8D 6C 10           STA XX086C
01942  1C88  F0 23              BEQ XX14AD
01943  1C8A  AD 5D 10    XX148A LDA XX085D
01944  1C8D  C9 06              CMP #$06
01945  1C8F  90 1C              BCC XX14AD
01946  1C91  C9 09              CMP #$09
01947  1C93  F0 02              BEQ XX1497
01948  1C95  B0 16              BCS XX14AD
01949  1C97  AD 6C 10    XX1497 LDA XX086C
01950  1C9A  D0 07              BNE XX14A3
01951  1C9C  AD 6D 10           LDA XX086D
01952  1C9F  C9 FF              CMP #$FF
01953  1CA1  D0 0A              BNE XX14AD
01954  1CA3  A9 19       XX14A3 LDA #$19
01955  1CA5  8D 71 10           STA XX0871
01956  1CA8  A9 00              LDA #$00
01957  1CAA  8D 6C 10           STA XX086C
01958  1CAD  A9 02       XX14AD LDA #$02
01959  1CAF  8D 70 10           STA XX0870
01960  1CB2  AD 6C 10           LDA XX086C
01961  1CB5  D0 1A              BNE XX14D1
01962  1CB7  A9 01              LDA #$01
01963  1CB9  8D 70 10           STA XX0870
01964  1CBC  AD 5D 10           LDA XX085D
01965  1CBF  18                 CLC 
01966  1CC0  69 02              ADC #$02
01967  1CC2  8D 5D 10           STA XX085D
01968  1CC5  C9 0D       XX14C5 CMP #$0D
01969  1CC7  90 17              BCC XX14E0
01970  1CC9  A9 15              LDA #$15
01971  1CCB  8D 71 10           STA XX0871
01972  1CCE  4C A1 1D           JMP XX15A1
01973  1CD1              ;********************************
01974  1CD1  AD 5D 10    XX14D1 LDA XX085D
01975  1CD4  18                 CLC 
01976  1CD5  69 0D              ADC #$0D
01977  1CD7  8D 5D 10           STA XX085D
01978  1CDA  C9 0F       XX14DA CMP #$0F
01979  1CDC  F0 02              BEQ XX14E0
01980  1CDE  B0 0F              BCS XX14EF
01981  1CE0  A8          XX14E0 TAY 
01982  1CE1  88                 DEY 






ASSEMBLERP64......PAGE 0038

LINE# LOC   CODE        LINE


01983  1CE2  B9 3B 29           LDA XX213B,Y
01984  1CE5  18                 CLC 
01985  1CE6  6D 52 10           ADC XX0852
01986  1CE9  A8                 TAY 
01987  1CEA  B9 4A 29           LDA XX214A,Y
01988  1CED  10 43              BPL XX1532
01989  1CEF  AD 5E 10    XX14EF LDA XX085E
01990  1CF2              ;********************************
01991  1CF2              ;.END
01992  1CF2              ;*=$14F2
01993  1CF2              ;********************************
01994  1CF2  F0 20              BEQ XX1514
01995  1CF4  AD 70 10           LDA XX0870
01996  1CF7  C9 02              CMP #$02
01997  1CF9  F0 08              BEQ XX1503
01998  1CFB  A9 18              LDA #$18
01999  1CFD  8D 71 10           STA XX0871
02000  1D00  4C A1 1D           JMP XX15A1
02001  1D03              ;********************************
02002  1D03  A9 01       XX1503 LDA #$01
02003  1D05  8D 70 10           STA XX0870
02004  1D08  AD 5D 10           LDA XX085D
02005  1D0B  38                 SEC 
02006  1D0C  E9 0B              SBC #$0B
02007  1D0E  8D 5D 10           STA XX085D
02008  1D11  4C C5 1C           JMP XX14C5
02009  1D14              ;********************************
02010  1D14  AD 70 10    XX1514 LDA XX0870
02011  1D17  C9 01              CMP #$01
02012  1D19  F0 08              BEQ XX1523
02013  1D1B  A9 18              LDA #$18
02014  1D1D  8D 71 10           STA XX0871
02015  1D20  4C A1 1D           JMP XX15A1
02016  1D23              ;********************************
02017  1D23  EE 70 10    XX1523 INC XX0870
02018  1D26  AD 5D 10           LDA XX085D
02019  1D29  18                 CLC 
02020  1D2A  69 0B              ADC #$0B
02021  1D2C  8D 5D 10           STA XX085D
02022  1D2F  4C DA 1C           JMP XX14DA
02023  1D32              ;********************************
02024  1D32  18          XX1532 CLC 
02025  1D33  6D 51 10           ADC XX0851
02026  1D36  A0 00              LDY #$00
02027  1D38  20 90 30           JSR XX2890
02028  1D3B  AD 5E 10           LDA XX085E
02029  1D3E  D0 3F              BNE XX157F
02030  1D40  A0 01              LDY #$01
02031  1D42  AD 6D 10           LDA XX086D
02032  1D45  20 90 30           JSR XX2890
02033  1D48  A0 02              LDY #$02
02034  1D4A  AD 70 10           LDA XX0870
02035  1D4D  C9 01              CMP #$01
02036  1D4F  F0 06              BEQ XX1557
02037  1D51  AD 6C 10           LDA XX086C






ASSEMBLERP64......PAGE 0039

LINE# LOC   CODE        LINE


02038  1D54  20 90 30           JSR XX2890
02039  1D57  AD 71 10    XX1557 LDA XX0871
02040  1D5A  C9 17              CMP #$17
02041  1D5C  F0 36              BEQ XX1594
02042  1D5E  C9 19              CMP #$19
02043  1D60  F0 45              BEQ XX15A7
02044  1D62  A9 09              LDA #$09
02045  1D64  2D 75 10           AND XX0875
02046  1D67  D0 4F              BNE XX15B8
02047  1D69  AD 70 10           LDA XX0870
02048  1D6C  C9 01              CMP #$01
02049  1D6E  D0 05              BNE XX1575
02050  1D70  AD 6C 10           LDA XX086C
02051  1D73  D0 43              BNE XX15B8
02052  1D75  A2 00       XX1575 LDX #$00
02053  1D77  AC 70 10           LDY XX0870
02054  1D7A  C8                 INY 
02055  1D7B  8A                 TXA 
02056  1D7C  4C C8 1D           JMP XX15C8
02057  1D7F              ;********************************
02058  1D7F  AC 70 10    XX157F LDY XX0870
02059  1D82  AD 52 10           LDA XX0852
02060  1D85  C9 0E              CMP #$0E
02061  1D87  D0 02              BNE XX158B
02062  1D89  A0 01              LDY #$01
02063  1D8B  AE 69 10    XX158B LDX XX0869
02064  1D8E  C8                 INY 
02065  1D8F  A9 01              LDA #$01
02066  1D91  4C C8 1D           JMP XX15C8
02067  1D94              ;********************************
02068  1D94  AE 69 10    XX1594 LDX XX0869
02069  1D97  A0 02              LDY #$02
02070  1D99  4C C8 1D           JMP XX15C8
02071  1D9C              ;********************************
02072  1D9C  A9 07       XX159C LDA #$07
02073  1D9E  8D 71 10           STA XX0871
02074  1DA1  AE 69 10    XX15A1 LDX XX0869
02075  1DA4  4C B0 1D           JMP XX15B0
02076  1DA7              ;********************************
02077  1DA7  AE 6E 10    XX15A7 LDX XX086E
02078  1DAA  4C B0 1D           JMP XX15B0
02079  1DAD              ;********************************
02080  1DAD  AE 60 10    XX15AD LDX XX0860
02081  1DB0  A0 03       XX15B0 LDY #$03
02082  1DB2  AD 71 10           LDA XX0871
02083  1DB5  4C C8 1D           JMP XX15C8
02084  1DB8              ;********************************
02085  1DB8  AE 69 10    XX15B8 LDX XX0869
02086  1DBB  AC 70 10           LDY XX0870
02087  1DBE  C8                 INY 
02088  1DBF  A9 04              LDA #$04
02089  1DC1  4C C8 1D           JMP XX15C8
02090  1DC4              ;********************************
02091  1DC4  A2 00       XX15C4 LDX #$00
02092  1DC6  8A                 TXA 






ASSEMBLERP64......PAGE 0040

LINE# LOC   CODE        LINE


02093  1DC7  A8                 TAY 
02094  1DC8  20 68 23    XX15C8 JSR XX1B68
02095  1DCB  A2 FF       XX15CB LDX #$FF
02096  1DCD  9A                 TXS 
02097  1DCE  4C AF 14           JMP XX0CAF
02098  1DD1              ;********************************
02099  1DD1  AD 77 10    XX15D1 LDA XX0877
02100  1DD4  C9 FF              CMP #$FF
02101  1DD6  F0 49              BEQ XX1621
02102  1DD8  AE 6E 10           LDX XX086E
02103  1DDB  EC 77 10    XX15DB CPX XX0877
02104  1DDE  F0 02              BEQ XX15E2
02105  1DE0  B0 3F              BCS XX1621
02106  1DE2  BD 80 10    XX15E2 LDA XX0880,X
02107  1DE5  C9 20              CMP #$20        ;' '
02108  1DE7  F0 05              BEQ XX15EE
02109  1DE9  8E 69 10           STX XX0869
02110  1DEC  D0 2D              BNE XX161B
02111  1DEE  E8          XX15EE INX 
02112  1DEF  8E 6E 10           STX XX086E
02113  1DF2  4C DB 1D           JMP XX15DB
02114  1DF5              ;********************************
02115  1DF5  A0 00       XX15F5 LDY #$00
02116  1DF7  8C 6B 10           STY XX086B
02117  1DFA  AE 6E 10           LDX XX086E
02118  1DFD  EC 77 10    XX15FD CPX XX0877
02119  1E00  F0 02              BEQ XX1604
02120  1E02  B0 19              BCS XX161D
02121  1E04  BD 80 10    XX1604 LDA XX0880,X
02122  1E07  C9 20              CMP #$20        ;' '
02123  1E09  F0 08              BEQ XX1613
02124  1E0B  C9 3D              CMP #$3D        ;'='
02125  1E0D  F0 04              BEQ XX1613
02126  1E0F  C9 3B              CMP #$3B        ;';'
02127  1E11  D0 10              BNE XX1623
02128  1E13  C0 00       XX1613 CPY #$00
02129  1E15  D0 17              BNE XX162E
02130  1E17  CA          XX1617 DEX 
02131  1E18  8E 6A 10           STX XX086A
02132  1E1B  38          XX161B SEC 
02133  1E1C  60                 RTS 
02134  1E1D              ;********************************
02135  1E1D  C0 00       XX161D CPY #$00
02136  1E1F  F0 F6              BEQ XX1617
02137  1E21  18          XX1621 CLC 
02138  1E22  60                 RTS 
02139  1E23              ;********************************
02140  1E23  C9 27       XX1623 CMP #$27        ;'''
02141  1E25  D0 07              BNE XX162E
02142  1E27  C8                 INY 
02143  1E28  C0 02              CPY #$02
02144  1E2A  D0 02              BNE XX162E
02145  1E2C  A0 00              LDY #$00
02146  1E2E  E8          XX162E INX 
02147  1E2F  EE 6B 10           INC XX086B






ASSEMBLERP64......PAGE 0041

LINE# LOC   CODE        LINE


02148  1E32  4C FD 1D           JMP XX15FD
02149  1E35              ;********************************
02150  1E35  AE 6E 10    XX1635 LDX XX086E
02151  1E38  EC 77 10    XX1638 CPX XX0877
02152  1E3B  F0 02              BEQ XX163F
02153  1E3D  B0 E2              BCS XX1621
02154  1E3F  BD 80 10    XX163F LDA XX0880,X
02155  1E42  C9 27              CMP #$27        ;'''
02156  1E44  D0 19              BNE XX165F
02157  1E46  E8          XX1646 INX 
02158  1E47  8E 6E 10           STX XX086E
02159  1E4A  EC 77 10           CPX XX0877
02160  1E4D  F0 02              BEQ XX1651
02161  1E4F  B0 D0              BCS XX1621
02162  1E51  BD 80 10    XX1651 LDA XX0880,X
02163  1E54  C9 27              CMP #$27        ;'''
02164  1E56  D0 EE              BNE XX1646
02165  1E58  E8                 INX 
02166  1E59  8E 6E 10           STX XX086E
02167  1E5C  4C 38 1E           JMP XX1638
02168  1E5F              ;********************************
02169  1E5F  BD 80 10    XX165F LDA XX0880,X
02170  1E62  C9 20              CMP #$20        ;' '
02171  1E64  F0 BB              BEQ XX1621
02172  1E66  C9 29              CMP #$29        ;')'
02173  1E68  F0 B1              BEQ XX161B
02174  1E6A  C9 2C              CMP #$2C        ;','
02175  1E6C  F0 AD              BEQ XX161B
02176  1E6E  E8                 INX 
02177  1E6F  8E 6E 10           STX XX086E
02178  1E72  4C 38 1E           JMP XX1638
02179  1E75              ;********************************
02180  1E75  BD 80 10    XX1675 LDA XX0880,X
02181  1E78  C9 41              CMP #$41        ;'A'
02182  1E7A  90 A5              BCC XX1621
02183  1E7C  C9 5B              CMP #$5B        ;'['
02184  1E7E  90 9B              BCC XX161B
02185  1E80  B0 9F              BCS XX1621
02186  1E82  BD 80 10    XX1682 LDA XX0880,X
02187  1E85  C9 30              CMP #$30        ;'0'
02188  1E87  90 98              BCC XX1621
02189  1E89  C9 3A              CMP #$3A        ;':'
02190  1E8B  90 8E              BCC XX161B
02191  1E8D  B0 92              BCS XX1621
02192  1E8F  A0 FF       XX168F LDY #$FF
02193  1E91  C8          XX1691 INY 
02194  1E92  C0 05              CPY #$05
02195  1E94  F0 02              BEQ XX1698
02196  1E96  B0 12              BCS XX16AA
02197  1E98  CC 56 10    XX1698 CPY XX0856
02198  1E9B  90 02              BCC XX169F
02199  1E9D  B0 16              BCS XX16B5
02200  1E9F  20 75 1E    XX169F JSR XX1675
02201  1EA2  B0 08              BCS XX16AC
02202  1EA4  20 82 1E           JSR XX1682






ASSEMBLERP64......PAGE 0042

LINE# LOC   CODE        LINE


02203  1EA7  B0 03              BCS XX16AC
02204  1EA9  60                 RTS 
02205  1EAA              ;********************************
02206  1EAA  38          XX16AA SEC 
02207  1EAB  60                 RTS 
02208  1EAC              ;********************************
02209  1EAC  BD 80 10    XX16AC LDA XX0880,X
02210  1EAF  99 08 11           STA XX0908,Y
02211  1EB2  E8                 INX 
02212  1EB3  D0 DC              BNE XX1691
02213  1EB5  A9 20       XX16B5 LDA #$20        ;' '
02214  1EB7  99 08 11           STA XX0908,Y
02215  1EBA  D0 D5              BNE XX1691
02216  1EBC  A9 00       XX16BC LDA #$00
02217  1EBE  8D 6C 10           STA XX086C
02218  1EC1  8D 6D 10           STA XX086D
02219  1EC4  A9 FC              LDA #$FC
02220  1EC6  2D 75 10           AND XX0875
02221  1EC9  8D 75 10           STA XX0875
02222  1ECC  EC 77 10           CPX XX0877
02223  1ECF  F0 05              BEQ XX16D6
02224  1ED1  90 03              BCC XX16D6
02225  1ED3  4C 1E 21    XX16D3 JMP XX191E
02226  1ED6              ;********************************
02227  1ED6  20 24 21    XX16D6 JSR XX1924
02228  1ED9  B0 F8              BCS XX16D3
02229  1EDB  A0 2B              LDY #$2B        ;'+'
02230  1EDD  C9 2D              CMP #$2D        ;'-'
02231  1EDF  D0 03              BNE XX16E4
02232  1EE1  A0 2D              LDY #$2D        ;'-'
02233  1EE3  E8                 INX 
02234  1EE4  8C 55 10    XX16E4 STY XX0855
02235  1EE7  EC 77 10           CPX XX0877
02236  1EEA  F0 02              BEQ XX16EE
02237  1EEC  B0 E5              BCS XX16D3
02238  1EEE  A9 00       XX16EE LDA #$00
02239  1EF0  8D 78 10           STA XX0878
02240  1EF3  8D 79 10           STA XX0879
02241  1EF6  20 24 21           JSR XX1924
02242  1EF9  B0 D8              BCS XX16D3
02243  1EFB  C9 3C              CMP #$3C        ;'<'
02244  1EFD  D0 06              BNE XX1705
02245  1EFF  EE 78 10           INC XX0878
02246  1F02  4C 0C 1F           JMP XX170C
02247  1F05              ;********************************
02248  1F05  C9 3E       XX1705 CMP #$3E        ;'>'
02249  1F07  D0 0B              BNE XX1714
02250  1F09  EE 79 10           INC XX0879
02251  1F0C  E8          XX170C INX 
02252  1F0D  EC 77 10           CPX XX0877
02253  1F10  F0 02              BEQ XX1714
02254  1F12  B0 BF              BCS XX16D3
02255  1F14  20 82 1E    XX1714 JSR XX1682
02256  1F17  90 05              BCC XX171E
02257  1F19  A0 0A              LDY #$0A






ASSEMBLERP64......PAGE 0043

LINE# LOC   CODE        LINE


02258  1F1B  4C A0 1F           JMP XX17A0
02259  1F1E              ;********************************
02260  1F1E  C9 24       XX171E CMP #$24        ;'$'
02261  1F20  D0 05              BNE XX1727
02262  1F22  A0 10              LDY #$10
02263  1F24  4C 8E 1F           JMP XX178E
02264  1F27              ;********************************
02265  1F27  C9 40       XX1727 CMP #$40        ;'@'
02266  1F29  D0 05              BNE XX1730
02267  1F2B  A0 08              LDY #$08
02268  1F2D  4C 8E 1F           JMP XX178E
02269  1F30              ;********************************
02270  1F30  C9 25       XX1730 CMP #$25        ;'%'
02271  1F32  D0 04              BNE XX1738
02272  1F34  A0 02              LDY #$02
02273  1F36  D0 56              BNE XX178E
02274  1F38  20 75 1E    XX1738 JSR XX1675
02275  1F3B  90 3F              BCC XX177C
02276  1F3D  8A                 TXA 
02277  1F3E  A8                 TAY 
02278  1F3F  E8          XX173F INX 
02279  1F40  EC 77 10           CPX XX0877
02280  1F43  F0 02              BEQ XX1747
02281  1F45  B0 0A              BCS XX1751
02282  1F47  20 82 1E    XX1747 JSR XX1682
02283  1F4A  B0 F3              BCS XX173F
02284  1F4C  20 75 1E           JSR XX1675
02285  1F4F  B0 EE              BCS XX173F
02286  1F51  8C 7B 10    XX1751 STY XX087B
02287  1F54  8A                 TXA 
02288  1F55  38                 SEC 
02289  1F56  ED 7B 10           SBC XX087B
02290  1F59  C9 07              CMP #$07
02291  1F5B  90 03              BCC XX1760
02292  1F5D  4C 1E 21    XX175D JMP XX191E
02293  1F60              ;********************************
02294  1F60  8D 56 10    XX1760 STA XX0856
02295  1F63  AE 7B 10           LDX XX087B
02296  1F66  20 8F 1E           JSR XX168F
02297  1F69  90 F2              BCC XX175D
02298  1F6B  8E 7C 10           STX XX087C
02299  1F6E  20 F8 21           JSR XX19F8
02300  1F71  AE 7C 10           LDX XX087C
02301  1F74  B0 56              BCS XX17CC
02302  1F76  AE 7B 10           LDX XX087B
02303  1F79  4C 1B 21           JMP XX191B
02304  1F7C              ;********************************
02305  1F7C  C9 2A       XX177C CMP #$2A        ;'*'
02306  1F7E  D0 DD              BNE XX175D
02307  1F80  A5 06              LDA $06
02308  1F82  8D 54 10           STA XX0854
02309  1F85  A5 07              LDA $07
02310  1F87  8D 53 10           STA XX0853
02311  1F8A  E8                 INX 
02312  1F8B  4C CC 1F           JMP XX17CC






ASSEMBLERP64......PAGE 0044

LINE# LOC   CODE        LINE


02313  1F8E              ;********************************
02314  1F8E  E8          XX178E INX 
02315  1F8F  EC 77 10           CPX XX0877
02316  1F92  F0 02              BEQ XX1796
02317  1F94  B0 C7              BCS XX175D
02318  1F96  20 82 1E    XX1796 JSR XX1682
02319  1F99  B0 05              BCS XX17A0
02320  1F9B  20 75 1E           JSR XX1675
02321  1F9E  90 BD              BCC XX175D
02322  1FA0  8C 58 10    XX17A0 STY XX0858
02323  1FA3  8A                 TXA 
02324  1FA4  A8                 TAY 
02325  1FA5  E8          XX17A5 INX 
02326  1FA6  EC 77 10           CPX XX0877
02327  1FA9  F0 02              BEQ XX17AD
02328  1FAB  10 0A              BPL XX17B7
02329  1FAD  20 82 1E    XX17AD JSR XX1682
02330  1FB0  B0 F3              BCS XX17A5
02331  1FB2  20 75 1E           JSR XX1675
02332  1FB5  B0 EE              BCS XX17A5
02333  1FB7  8C 7B 10    XX17B7 STY XX087B
02334  1FBA  8A                 TXA 
02335  1FBB  38                 SEC 
02336  1FBC  ED 7B 10           SBC XX087B
02337  1FBF  8D 56 10           STA XX0856
02338  1FC2  98                 TYA 
02339  1FC3  AA                 TAX 
02340  1FC4  20 39 21           JSR XX1939
02341  1FC7  B0 03              BCS XX17CC
02342  1FC9  4C 1E 21           JMP XX191E
02343  1FCC              ;********************************
02344  1FCC  AD 78 10    XX17CC LDA XX0878
02345  1FCF  F0 07              BEQ XX17D8
02346  1FD1  A9 00              LDA #$00
02347  1FD3  8D 53 10           STA XX0853
02348  1FD6  F0 10              BEQ XX17E8
02349  1FD8  AD 79 10    XX17D8 LDA XX0879
02350  1FDB  F0 0B              BEQ XX17E8
02351  1FDD  AD 53 10           LDA XX0853
02352  1FE0  8D 54 10           STA XX0854
02353  1FE3  A9 00              LDA #$00
02354  1FE5  8D 53 10           STA XX0853
02355  1FE8  AD 55 10    XX17E8 LDA XX0855
02356  1FEB  C9 2B              CMP #$2B        ;'+'
02357  1FED  D0 50              BNE XX183F
02358  1FEF  AD 6D 10           LDA XX086D
02359  1FF2  18                 CLC 
02360  1FF3  6D 54 10           ADC XX0854
02361  1FF6  8D 6D 10           STA XX086D
02362  1FF9  AD 6C 10           LDA XX086C
02363  1FFC  6D 53 10           ADC XX0853
02364  1FFF  8D 6C 10           STA XX086C
02365  2002  A9 00              LDA #$00
02366  2004  2A                 ROL A
02367  2005  A8                 TAY 






ASSEMBLERP64......PAGE 0045

LINE# LOC   CODE        LINE


02368  2006  A9 01              LDA #$01
02369  2008  2D 75 10           AND XX0875
02370  200B  0A                 ASL A
02371  200C  8D 7B 10           STA XX087B
02372  200F  A9 02              LDA #$02
02373  2011  2D 75 10           AND XX0875
02374  2014  4D 7B 10           EOR XX087B
02375  2017  D0 0D              BNE XX1826
02376  2019  98                 TYA 
02377  201A  F0 15              BEQ XX1831
02378  201C  A9 08              LDA #$08
02379  201E  0D 75 10           ORA XX0875
02380  2021  8D 75 10           STA XX0875
02381  2024  D0 0B              BNE XX1831
02382  2026  98          XX1826 TYA 
02383  2027  F0 0B              BEQ XX1834
02384  2029  A9 FE              LDA #$FE
02385  202B  2D 75 10           AND XX0875
02386  202E  8D 75 10           STA XX0875
02387  2031  4C 9B 20    XX1831 JMP XX189B
02388  2034              ;********************************
02389  2034  A9 01       XX1834 LDA #$01
02390  2036  0D 75 10           ORA XX0875
02391  2039  8D 75 10           STA XX0875
02392  203C  4C 9B 20           JMP XX189B
02393  203F              ;********************************
02394  203F  C9 2D       XX183F CMP #$2D        ;'-'
02395  2041  D0 6B              BNE XX18AE
02396  2043  AD 6D 10           LDA XX086D
02397  2046  38                 SEC 
02398  2047  ED 54 10           SBC XX0854
02399  204A  8D 6D 10           STA XX086D
02400  204D  AD 6C 10           LDA XX086C
02401  2050  ED 53 10           SBC XX0853
02402  2053  8D 6C 10           STA XX086C
02403  2056  A9 00              LDA #$00
02404  2058  2A                 ROL A
02405  2059  A8                 TAY 
02406  205A  A9 01              LDA #$01
02407  205C  2D 75 10           AND XX0875
02408  205F  0A                 ASL A
02409  2060  8D 7B 10           STA XX087B
02410  2063  A9 02              LDA #$02
02411  2065  2D 75 10           AND XX0875
02412  2068  4D 7B 10           EOR XX087B
02413  206B  D0 19              BNE XX1886
02414  206D  98                 TYA 
02415  206E  F0 0B              BEQ XX187B
02416  2070  A9 FE              LDA #$FE
02417  2072  2D 75 10           AND XX0875
02418  2075  8D 75 10           STA XX0875
02419  2078  4C 9B 20           JMP XX189B
02420  207B              ;********************************
02421  207B  A9 01       XX187B LDA #$01
02422  207D  0D 75 10           ORA XX0875






ASSEMBLERP64......PAGE 0046

LINE# LOC   CODE        LINE


02423  2080  8D 75 10           STA XX0875
02424  2083  4C 9B 20           JMP XX189B
02425  2086              ;********************************
02426  2086  8C 7B 10    XX1886 STY XX087B
02427  2089  A9 01              LDA #$01
02428  208B  2D 75 10           AND XX0875
02429  208E  4D 7B 10           EOR XX087B
02430  2091  F0 08              BEQ XX189B
02431  2093  A9 08              LDA #$08
02432  2095  0D 75 10           ORA XX0875
02433  2098  8D 75 10           STA XX0875
02434  209B  EC 77 10    XX189B CPX XX0877
02435  209E  F0 02              BEQ XX18A2
02436  20A0  10 76              BPL XX1918
02437  20A2  20 24 21    XX18A2 JSR XX1924
02438  20A5  B0 71              BCS XX1918
02439  20A7  BC 80 10           LDY XX0880,X
02440  20AA  E8                 INX 
02441  20AB  4C E4 1E           JMP XX16E4
02442  20AE              ;********************************
02443  20AE  48          XX18AE PHA 
02444  20AF  A9 00              LDA #$00
02445  20B1  8D 7B 10           STA XX087B
02446  20B4  8D 7C 10           STA XX087C
02447  20B7  68                 PLA 
02448  20B8  C9 2A              CMP #$2A        ;'*'
02449  20BA  D0 38              BNE XX18F4
02450  20BC  0E 7C 10    XX18BC ASL XX087C
02451  20BF  2E 7B 10           ROL XX087B
02452  20C2  4E 53 10           LSR XX0853
02453  20C5  6E 54 10           ROR XX0854
02454  20C8  90 13              BCC XX18DD
02455  20CA  18                 CLC 
02456  20CB  AD 7C 10           LDA XX087C
02457  20CE  6D 6D 10           ADC XX086D
02458  20D1  8D 7C 10           STA XX087C
02459  20D4  AD 7B 10           LDA XX087B
02460  20D7  6D 6C 10           ADC XX086C
02461  20DA  8D 7B 10           STA XX087B
02462  20DD  AD 53 10    XX18DD LDA XX0853
02463  20E0  0D 54 10           ORA XX0854
02464  20E3  D0 D7              BNE XX18BC
02465  20E5  AD 7B 10    XX18E5 LDA XX087B
02466  20E8  8D 6C 10           STA XX086C
02467  20EB  AD 7C 10           LDA XX087C
02468  20EE  8D 6D 10           STA XX086D
02469  20F1  4C 9B 20           JMP XX189B
02470  20F4              ;********************************
02471  20F4  C9 2F       XX18F4 CMP #$2F        ;'/'
02472  20F6  D0 26              BNE XX191E
02473  20F8  AD 6D 10    XX18F8 LDA XX086D
02474  20FB  38                 SEC 
02475  20FC  ED 54 10           SBC XX0854
02476  20FF  8D 6D 10           STA XX086D
02477  2102  AD 6C 10           LDA XX086C






ASSEMBLERP64......PAGE 0047

LINE# LOC   CODE        LINE


02478  2105  ED 53 10           SBC XX0853
02479  2108  8D 6C 10           STA XX086C
02480  210B  90 D8              BCC XX18E5
02481  210D  EE 7C 10           INC XX087C
02482  2110  D0 E6              BNE XX18F8
02483  2112  EE 7B 10           INC XX087B
02484  2115  4C F8 20           JMP XX18F8
02485  2118              ;********************************
02486  2118  A9 00       XX1918 LDA #$00
02487  211A              ;********************************
02488  211A  2C                 .BYTE $2C
02489  211B              ;********************************
02490  211B  A9 01       XX191B LDA #$01
02491  211D              ;********************************
02492  211D  2C                 .BYTE $2C
02493  211E              ;********************************
02494  211E  A9 02       XX191E LDA #$02
02495  2120  8D 57 10           STA XX0857
02496  2123  60                 RTS 
02497  2124              ;********************************
02498  2124  BD 80 10    XX1924 LDA XX0880,X
02499  2127  C9 20              CMP #$20        ;' '
02500  2129  F0 0D              BEQ XX1938
02501  212B  C9 2C              CMP #$2C        ;','
02502  212D  F0 09              BEQ XX1938
02503  212F  C9 29              CMP #$29        ;')'
02504  2131  F0 05              BEQ XX1938
02505  2133  C9 3B              CMP #$3B        ;';'
02506  2135  F0 01              BEQ XX1938
02507  2137  18                 CLC 
02508  2138  60          XX1938 RTS 
02509  2139              ;********************************
02510  2139  A9 00       XX1939 LDA #$00
02511  213B  8D 53 10           STA XX0853
02512  213E  8D 54 10           STA XX0854
02513  2141  BD 80 10    XX1941 LDA XX0880,X
02514  2144  20 82 1E           JSR XX1682
02515  2147  90 05              BCC XX194E
02516  2149  E9 30              SBC #$30        ;'0'
02517  214B  4C 55 21           JMP XX1955
02518  214E              ;********************************
02519  214E  20 75 1E    XX194E JSR XX1675
02520  2151  90 07              BCC XX195A
02521  2153  E9 37              SBC #$37        ;'7'
02522  2155  CD 58 10    XX1955 CMP XX0858
02523  2158  90 02              BCC XX195C
02524  215A  18          XX195A CLC 
02525  215B  60                 RTS 
02526  215C              ;********************************
02527  215C  8D 76 10    XX195C STA XX0876
02528  215F  8A                 TXA 
02529  2160  48                 PHA 
02530  2161  AC 58 10           LDY XX0858
02531  2164  C0 02              CPY #$02
02532  2166  D0 04              BNE XX196C






ASSEMBLERP64......PAGE 0048

LINE# LOC   CODE        LINE


02533  2168  A2 01              LDX #$01
02534  216A  D0 22              BNE XX198E
02535  216C  C0 08       XX196C CPY #$08
02536  216E  D0 04              BNE XX1974
02537  2170  A2 03              LDX #$03
02538  2172  D0 1A              BNE XX198E
02539  2174  C0 10       XX1974 CPY #$10
02540  2176  D0 04              BNE XX197C
02541  2178  A2 04              LDX #$04
02542  217A  D0 12              BNE XX198E
02543  217C  C0 0A       XX197C CPY #$0A
02544  217E  D0 DA              BNE XX195A
02545  2180  AD 53 10           LDA XX0853
02546  2183  8D 7B 10           STA XX087B
02547  2186  AD 54 10           LDA XX0854
02548  2189  8D 7C 10           STA XX087C
02549  218C  A2 03              LDX #$03
02550  218E  0E 54 10    XX198E ASL XX0854
02551  2191  2E 53 10           ROL XX0853
02552  2194  90 08              BCC XX199E
02553  2196  AD 75 10           LDA XX0875
02554  2199  09 08              ORA #$08
02555  219B  8D 75 10           STA XX0875
02556  219E  CA          XX199E DEX 
02557  219F  D0 ED              BNE XX198E
02558  21A1  C0 0A              CPY #$0A
02559  21A3  D0 2D              BNE XX19D2
02560  21A5  0E 7C 10           ASL XX087C
02561  21A8  2E 7B 10           ROL XX087B
02562  21AB  90 08              BCC XX19B5
02563  21AD  AD 75 10           LDA XX0875
02564  21B0  09 08              ORA #$08
02565  21B2  8D 75 10           STA XX0875
02566  21B5  AD 54 10    XX19B5 LDA XX0854
02567  21B8  18                 CLC 
02568  21B9  6D 7C 10           ADC XX087C
02569  21BC  8D 54 10           STA XX0854
02570  21BF  AD 53 10           LDA XX0853
02571  21C2  6D 7B 10           ADC XX087B
02572  21C5  8D 53 10           STA XX0853
02573  21C8  90 08              BCC XX19D2
02574  21CA  AD 75 10           LDA XX0875
02575  21CD  09 08              ORA #$08
02576  21CF  8D 75 10           STA XX0875
02577  21D2  AD 76 10    XX19D2 LDA XX0876
02578  21D5  18                 CLC 
02579  21D6  6D 54 10           ADC XX0854
02580  21D9  8D 54 10           STA XX0854
02581  21DC  90 0D              BCC XX19EB
02582  21DE  EE 53 10           INC XX0853
02583  21E1  D0 08              BNE XX19EB
02584  21E3  AD 75 10           LDA XX0875
02585  21E6  09 08              ORA #$08
02586  21E8  8D 75 10           STA XX0875
02587  21EB  68          XX19EB PLA 






ASSEMBLERP64......PAGE 0049

LINE# LOC   CODE        LINE


02588  21EC  AA                 TAX 
02589  21ED  E8                 INX 
02590  21EE  CE 56 10           DEC XX0856
02591  21F1  F0 03              BEQ XX19F6
02592  21F3  4C 41 21           JMP XX1941
02593  21F6              ;********************************
02594  21F6  38          XX19F6 SEC 
02595  21F7  60                 RTS 
02596  21F8              ;********************************
02597  21F8  A5 0E       XX19F8 LDA $0E
02598  21FA  85 16              STA $16
02599  21FC  A5 0F              LDA $0F
02600  21FE  85 17              STA $17
02601  2200  AD 4D 10           LDA XX084D
02602  2203  85 1B              STA $1B
02603  2205  AD 4E 10           LDA XX084E
02604  2208  0A                 ASL A
02605  2209  26 1B              ROL $1B
02606  220B  0A                 ASL A
02607  220C  26 1B              ROL $1B
02608  220E  0A                 ASL A
02609  220F  26 1B              ROL $1B
02610  2211  18                 CLC 
02611  2212  65 16              ADC $16
02612  2214  85 1A              STA $1A
02613  2216  85 1E              STA $1E
02614  2218  A5 1B              LDA $1B
02615  221A  65 17              ADC $17
02616  221C  85 1B              STA $1B
02617  221E  85 1F              STA $1F
02618  2220  38          XX1A20 SEC 
02619  2221  A5 1A              LDA $1A
02620  2223  E5 16              SBC $16
02621  2225  85 1C              STA $1C
02622  2227  A5 1B              LDA $1B
02623  2229  E5 17              SBC $17
02624  222B  B0 01              BCS XX1A2E
02625  222D  00                 BRK 
02626  222E              ;********************************
02627  222E  4A          XX1A2E LSR A
02628  222F  85 1D              STA $1D
02629  2231  A5 1C              LDA $1C
02630  2233  6A                 ROR A
02631  2234  29 F8              AND #$F8
02632  2236  85 1C              STA $1C
02633  2238  18                 CLC 
02634  2239  A5 16              LDA $16
02635  223B  65 1C              ADC $1C
02636  223D  85 18              STA $18
02637  223F  A5 17              LDA $17
02638  2241  65 1D              ADC $1D
02639  2243  85 19              STA $19
02640  2245  A0 FF              LDY #$FF
02641  2247  C8          XX1A47 INY 
02642  2248  C0 06              CPY #$06






ASSEMBLERP64......PAGE 0050

LINE# LOC   CODE        LINE


02643  224A  F0 2B              BEQ XX1A77
02644  224C  B1 18              LDA ($18),Y
02645  224E  D9 08 11           CMP XX0908,Y
02646  2251  F0 F4              BEQ XX1A47
02647  2253  A5 1C              LDA $1C
02648  2255  05 1D              ORA $1D
02649  2257  F0 12              BEQ XX1A6B
02650  2259  A5 18              LDA $18
02651  225B  A4 19              LDY $19
02652  225D  90 06              BCC XX1A65
02653  225F  85 1A              STA $1A
02654  2261  84 1B              STY $1B
02655  2263  D0 BB              BNE XX1A20
02656  2265  85 16       XX1A65 STA $16
02657  2267  84 17              STY $17
02658  2269  D0 B5              BNE XX1A20
02659  226B  90 09       XX1A6B BCC XX1A76
02660  226D  A5 16              LDA $16
02661  226F  A4 17              LDY $17
02662  2271  85 1A              STA $1A
02663  2273  84 1B              STY $1B
02664  2275  18                 CLC 
02665  2276  60          XX1A76 RTS 
02666  2277              ;********************************
02667  2277  B1 18       XX1A77 LDA ($18),Y
02668  2279  8D 53 10           STA XX0853
02669  227C  C8                 INY 
02670  227D  B1 18              LDA ($18),Y
02671  227F  8D 54 10           STA XX0854
02672  2282  AD 66 10           LDA XX0866
02673  2285  F0 43              BEQ XX1ACA
02674  2287  AD 38 10           LDA XX0838
02675  228A  F0 3E              BEQ XX1ACA
02676  228C  38                 SEC 
02677  228D  A5 18              LDA $18
02678  228F  E5 0E              SBC $0E
02679  2291  85 1C              STA $1C
02680  2293  A5 19              LDA $19
02681  2295  E5 0F              SBC $0F
02682  2297  4A                 LSR A
02683  2298  66 1C              ROR $1C
02684  229A  4A                 LSR A
02685  229B  66 1C              ROR $1C
02686  229D  4A                 LSR A
02687  229E  66 1C              ROR $1C
02688  22A0  85 1D              STA $1D
02689  22A2  A2 09              LDX #$09
02690  22A4  EC 39 10           CPX XX0839
02691  22A7  F0 0B              BEQ XX1AB4
02692  22A9  20 CC FF           JSR CLRCHN
02693  22AC  A2 09              LDX #$09
02694  22AE  8E 39 10           STX XX0839
02695  22B1  20 C9 FF           JSR CHKOUT
02696  22B4  A5 1C       XX1AB4 LDA $1C
02697  22B6  20 D2 FF           JSR CHROUT






ASSEMBLERP64......PAGE 0051

LINE# LOC   CODE        LINE


02698  22B9  A5 1D              LDA $1D
02699  22BB  20 D2 FF           JSR CHROUT
02700  22BE  AD 68 10           LDA XX0868
02701  22C1  20 D2 FF           JSR CHROUT
02702  22C4  AD 67 10           LDA XX0867
02703  22C7  20 D2 FF           JSR CHROUT
02704  22CA  38          XX1ACA SEC 
02705  22CB  60                 RTS 
02706  22CC              ;********************************
02707  22CC  18          XX1ACC CLC 
02708  22CD  A5 1E              LDA $1E
02709  22CF  69 08              ADC #$08
02710  22D1  85 1C              STA $1C
02711  22D3  A5 1F              LDA $1F
02712  22D5  69 00              ADC #$00
02713  22D7  85 1D              STA $1D
02714  22D9  A0 07              LDY #$07
02715  22DB  38                 SEC 
02716  22DC  A5 1C              LDA $1C
02717  22DE  E5 14              SBC $14
02718  22E0  A5 1D              LDA $1D
02719  22E2  E5 15              SBC $15
02720  22E4  B0 43              BCS XX1B29
02721  22E6  A5 1B       XX1AE6 LDA $1B
02722  22E8  C5 1D              CMP $1D
02723  22EA  D0 06              BNE XX1AF2
02724  22EC  A5 1A              LDA $1A
02725  22EE  C5 1C              CMP $1C
02726  22F0  F0 17              BEQ XX1B09
02727  22F2  B1 1E       XX1AF2 LDA ($1E),Y
02728  22F4  91 1C              STA ($1C),Y
02729  22F6  A5 1E              LDA $1E
02730  22F8  D0 02              BNE XX1AFC
02731  22FA  C6 1F              DEC $1F
02732  22FC  C6 1E       XX1AFC DEC $1E
02733  22FE  A5 1C              LDA $1C
02734  2300  D0 02              BNE XX1B04
02735  2302  C6 1D              DEC $1D
02736  2304  C6 1C       XX1B04 DEC $1C
02737  2306  4C E6 22           JMP XX1AE6
02738  2309              ;********************************
02739  2309  A0 05       XX1B09 LDY #$05
02740  230B  B9 08 11    XX1B0B LDA XX0908,Y
02741  230E  91 1A              STA ($1A),Y
02742  2310  88                 DEY 
02743  2311  10 F8              BPL XX1B0B
02744  2313  A0 06              LDY #$06
02745  2315  AD 53 10           LDA XX0853
02746  2318  91 1A              STA ($1A),Y
02747  231A  C8                 INY 
02748  231B  AD 54 10           LDA XX0854
02749  231E  91 1A              STA ($1A),Y
02750  2320  EE 4E 10           INC XX084E
02751  2323  D0 03              BNE XX1B28
02752  2325  EE 4D 10           INC XX084D






ASSEMBLERP64......PAGE 0052

LINE# LOC   CODE        LINE


02753  2328  60          XX1B28 RTS 
02754  2329              ;********************************
02755  2329  A9 2A       XX1B29 LDA #>AA22B5    ;#$22      ;'"'
02756  232B  A0 B5              LDY #<AA22B5    ;#$B5
02757  232D  20 68 14           JSR XX0C68
02758  2330  4C AD 2F           JMP XX27AD
02759  2333              ;********************************
02760  2333              ; MATCH OPCODE TO OPCODE TABLE
02761  2333              ;********************************
02762  2333  A9 93       XX1B33 LDA #<ZZ2093    ;#$93
02763  2335  85 0C              STA $0C
02764  2337  A9 28              LDA #>ZZ2093    ;#$20      ;' '
02765  2339  85 0D              STA $0D
02766  233B  A2 00              LDX #$00
02767  233D  A0 02       XX1B3D LDY #$02
02768  233F  B9 08 11    XX1B3F LDA XX0908,Y
02769  2342  D1 0C              CMP ($0C),Y
02770  2344  D0 10              BNE XX1B56
02771  2346  88                 DEY 
02772  2347  10 F6              BPL XX1B3F
02773  2349  BD 1C 2A           LDA XX221C,X
02774  234C  8D 52 10           STA XX0852
02775  234F  BD 54 2A           LDA XX2254,X
02776  2352  8D 51 10           STA XX0851
02777  2355  60                 RTS 
02778  2356              ;********************************
02779  2356  A5 0C       XX1B56 LDA $0C
02780  2358  18                 CLC 
02781  2359  69 03              ADC #$03
02782  235B  85 0C              STA $0C
02783  235D  90 02              BCC XX1B61
02784  235F  E6 0D              INC $0D
02785  2361  E8          XX1B61 INX 
02786  2362  E0 39              CPX #$39        ;'9'
02787  2364  30 D7              BMI XX1B3D
02788  2366  18                 CLC 
02789  2367  60                 RTS 
02790  2368              ;********************************
02791  2368  48          XX1B68 PHA 
02792  2369  98                 TYA 
02793  236A  48                 PHA 
02794  236B              ;********************************
02795  236B              ;.END
02796  236B              ;*=$1B6B
02797  236B              ;********************************
02798  236B  8D 02 11           STA XX0902
02799  236E  8A                 TXA 
02800  236F  8D 03 11           STA XX0903
02801  2372  68                 PLA 
02802  2373  AA                 TAX 
02803  2374  A5 06              LDA $06
02804  2376  8D 04 11           STA XX0904
02805  2379  A5 07              LDA $07
02806  237B  8D 05 11           STA XX0905
02807  237E  68                 PLA 






ASSEMBLERP64......PAGE 0053

LINE# LOC   CODE        LINE


02808  237F  8D 06 11           STA XX0906
02809  2382  AD 68 10           LDA XX0868
02810  2385  8D 07 11           STA XX0907
02811  2388  E0 FF              CPX #$FF
02812  238A  D0 01              BNE XX1B8D
02813  238C  E8                 INX 
02814  238D  E0 04       XX1B8D CPX #$04
02815  238F  D0 09              BNE XX1B9A
02816  2391  AD 06 11           LDA XX0906
02817  2394  C9 C9              CMP #$C9
02818  2396  D0 02              BNE XX1B9A
02819  2398  A2 02              LDX #$02
02820  239A  E0 03       XX1B9A CPX #$03
02821  239C  D0 09              BNE XX1BA7
02822  239E  AD 06 11           LDA XX0906
02823  23A1  C9 CA              CMP #$CA
02824  23A3  D0 02              BNE XX1BA7
02825  23A5  A2 02              LDX #$02
02826  23A7  8A          XX1BA7 TXA 
02827  23A8  18                 CLC 
02828  23A9  65 06              ADC $06
02829  23AB  85 06              STA $06
02830  23AD  90 02              BCC XX1BB1
02831  23AF  E6 07              INC $07
02832  23B1  AD 66 10    XX1BB1 LDA XX0866
02833  23B4  D0 0C              BNE XX1BC2
02834  23B6  AD 06 11           LDA XX0906
02835  23B9  C9 02              CMP #$02
02836  23BB  F0 05              BEQ XX1BC2
02837  23BD  C9 11              CMP #$11
02838  23BF  F0 01              BEQ XX1BC2
02839  23C1  60                 RTS 
02840  23C2              ;********************************
02841  23C2  AD 06 11    XX1BC2 LDA XX0906
02842  23C5  D0 03              BNE XX1BCA
02843  23C7  4C C4 25           JMP XX1DC4
02844  23CA              ;********************************
02845  23CA  C9 CB       XX1BCA CMP #$CB
02846  23CC  D0 06              BNE XX1BD4
02847  23CE  AD 03 11           LDA XX0903
02848  23D1  4C DC 24           JMP XX1CDC
02849  23D4              ;********************************
02850  23D4  C9 CC       XX1BD4 CMP #$CC
02851  23D6  D0 1F              BNE XX1BF7
02852  23D8  AD 03 11           LDA XX0903
02853  23DB  D0 04              BNE XX1BE1
02854  23DD  69 00              ADC #$00
02855  23DF  D0 0C              BNE XX1BED
02856  23E1  AA          XX1BE1 TAX 
02857  23E2  20 BC 1E           JSR XX16BC
02858  23E5  AD 57 10           LDA XX0857
02859  23E8  D0 07              BNE XX1BF1
02860  23EA  AD 6D 10           LDA XX086D
02861  23ED  18          XX1BED CLC 
02862  23EE  4C DC 24           JMP XX1CDC






ASSEMBLERP64......PAGE 0054

LINE# LOC   CODE        LINE


02863  23F1              ;********************************
02864  23F1  C9 01       XX1BF1 CMP #$01
02865  23F3  F0 02              BEQ XX1BF7
02866  23F5  A9 13              LDA #$13
02867  23F7  C9 CD       XX1BF7 CMP #$CD
02868  23F9  F0 1D              BEQ XX1C18
02869  23FB  8D 5F 10           STA XX085F
02870  23FE  AD 66 10           LDA XX0866
02871  2401  F0 12              BEQ XX1C15
02872  2403  AD 06 11           LDA XX0906
02873  2406  C9 02              CMP #$02
02874  2408  D0 0B              BNE XX1C15
02875  240A  A9 00              LDA #$00
02876  240C  8D 06 11           STA XX0906
02877  240F  8D 71 10           STA XX0871
02878  2412  4C C4 25           JMP XX1DC4
02879  2415              ;********************************
02880  2415  4C 43 27    XX1C15 JMP XX1F43
02881  2418              ;********************************
02882  2418  A9 00       XX1C18 LDA #$00
02883  241A  8D 71 10           STA XX0871
02884  241D  4C F5 25           JMP XX1DF5
02885  2420              ;********************************
02886  2420  A5 0E       XX1C20 LDA $0E
02887  2422  85 02              STA $02
02888  2424  A5 0F              LDA $0F
02889  2426  85 03              STA $03
02890  2428  AD 6F 10           LDA XX086F
02891  242B  C9 34              CMP #$34        ;'4'
02892  242D  B0 06              BCS XX1C35
02893  242F  20 B1 24           JSR XX1CB1
02894  2432  4C 38 24           JMP XX1C38
02895  2435              ;********************************
02896  2435  20 A9 24    XX1C35 JSR XX1CA9
02897  2438  A9 00       XX1C38 LDA #$00
02898  243A  8D 56 10           STA XX0856
02899  243D  AD 6F 10    XX1C3D LDA XX086F
02900  2440  C9 3A              CMP #$3A        ;':'
02901  2442  30 03              BMI XX1C47
02902  2444  20 A9 24           JSR XX1CA9
02903  2447  20 3B 27    XX1C47 JSR XX1F3B
02904  244A  A0 00              LDY #$00
02905  244C  B1 02       XX1C4C LDA ($02),Y
02906  244E  20 80 2F           JSR XX2780
02907  2451  C8                 INY 
02908  2452  C0 06              CPY #$06
02909  2454  D0 F6              BNE XX1C4C
02910  2456  20 35 27           JSR XX1F35
02911  2459  B1 02              LDA ($02),Y
02912  245B  20 F9 27           JSR XX1FF9
02913  245E  C8                 INY 
02914  245F  B1 02              LDA ($02),Y
02915  2461  20 F9 27           JSR XX1FF9
02916  2464  EE 56 10           INC XX0856
02917  2467  AD 56 10           LDA XX0856






ASSEMBLERP64......PAGE 0055

LINE# LOC   CODE        LINE


02918  246A  C9 04              CMP #$04
02919  246C  F0 06              BEQ XX1C74
02920  246E  20 35 27           JSR XX1F35
02921  2471  4C 82 24           JMP XX1C82
02922  2474              ;********************************
02923  2474  A9 00       XX1C74 LDA #$00
02924  2476  8D 56 10           STA XX0856
02925  2479  20 7E 2F           JSR XX277E
02926  247C  20 D7 2F           JSR XX27D7
02927  247F  EE 6F 10           INC XX086F
02928  2482  18          XX1C82 CLC 
02929  2483  A5 02              LDA $02
02930  2485  69 08              ADC #$08
02931  2487  85 02              STA $02
02932  2489  90 02              BCC XX1C8D
02933  248B  E6 03              INC $03
02934  248D  38          XX1C8D SEC 
02935  248E  AD 4E 10           LDA XX084E
02936  2491  E9 01              SBC #$01
02937  2493  8D 4E 10           STA XX084E
02938  2496  AD 4D 10           LDA XX084D
02939  2499  E9 00              SBC #$00
02940  249B  8D 4D 10           STA XX084D
02941  249E  0D 4E 10           ORA XX084E
02942  24A1  F0 05              BEQ XX1CA8
02943  24A3  90 03              BCC XX1CA8
02944  24A5  4C 3D 24           JMP XX1C3D
02945  24A8              ;********************************
02946  24A8  60          XX1CA8 RTS 
02947  24A9              ;********************************
02948  24A9  20 C0 24    XX1CA9 JSR XX1CC0
02949  24AC  A9 FD              LDA #$FD
02950  24AE  8D 6F 10           STA XX086F
02951  24B1  A2 67       XX1CB1 LDX #AA22F3-XX228C ;#$67
02952  24B3  20 5E 30           JSR XX285E
02953  24B6  AD 6F 10           LDA XX086F
02954  24B9  18                 CLC 
02955  24BA  69 06              ADC #$06
02956  24BC  8D 6F 10           STA XX086F
02957  24BF  60                 RTS 
02958  24C0              ;********************************
02959  24C0  AC 6F 10    XX1CC0 LDY XX086F
02960  24C3  C0 3A       XX1CC3 CPY #$3A        ;':'
02961  24C5  B0 06              BCS XX1CCD
02962  24C7  20 7E 2F           JSR XX277E
02963  24CA  C8                 INY 
02964  24CB  D0 F6              BNE XX1CC3
02965  24CD  20 D6 24    XX1CCD JSR XX1CD6
02966  24D0  20 7E 2F           JSR XX277E
02967  24D3  20 7E 2F           JSR XX277E
02968  24D6  20 7E 2F    XX1CD6 JSR XX277E
02969  24D9  4C 7E 2F           JMP XX277E
02970  24DC              ;********************************
02971  24DC  08          XX1CDC PHP 
02972  24DD  48                 PHA 






ASSEMBLERP64......PAGE 0056

LINE# LOC   CODE        LINE


02973  24DE  A9 04              LDA #$04
02974  24E0  2D 74 10           AND XX0874
02975  24E3  D0 03              BNE XX1CE8
02976  24E5  68                 PLA 
02977  24E6  28                 PLP 
02978  24E7  60                 RTS 
02979  24E8              ;********************************
02980  24E8  68          XX1CE8 PLA 
02981  24E9  28                 PLP 
02982  24EA  90 6E              BCC XX1D5A
02983  24EC  AA                 TAX 
02984  24ED  F0 1C              BEQ XX1D0B
02985  24EF  A0 00              LDY #$00
02986  24F1  BD 81 10    XX1CF1 LDA XX0881,X
02987  24F4  C0 14              CPY #$14
02988  24F6  F0 10              BEQ XX1D08
02989  24F8  C9 27              CMP #$27        ;'''
02990  24FA  F0 0C              BEQ XX1D08
02991  24FC  99 D0 10           STA XX08D0,Y
02992  24FF  C8                 INY 
02993  2500  E8                 INX 
02994  2501  EC 77 10           CPX XX0877
02995  2504  30 EB              BMI XX1CF1
02996  2506  F0 E9              BEQ XX1CF1
02997  2508  8C 59 10    XX1D08 STY XX0859
02998  250B  F8          XX1D0B SED 
02999  250C  18                 CLC 
03000  250D  AD 4F 10           LDA XX084F
03001  2510  69 01              ADC #$01
03002  2512  8D 4F 10           STA XX084F
03003  2515  A9 00              LDA #$00
03004  2517  6D 50 10           ADC XX0850
03005  251A  8D 50 10           STA XX0850
03006  251D  D8                 CLD 
03007  251E  20 C0 24           JSR XX1CC0
03008  2521  A0 00       XX1D21 LDY #$00
03009  2523  CC 59 10           CPY XX0859
03010  2526  F0 0C              BEQ XX1D34
03011  2528  B9 D0 10    XX1D28 LDA XX08D0,Y
03012  252B  20 80 2F           JSR XX2780
03013  252E  C8                 INY 
03014  252F  CC 59 10           CPY XX0859
03015  2532  30 F4              BMI XX1D28
03016  2534  A2 06       XX1D34 LDX #$06
03017  2536  A9 2E       XX1D36 LDA #$2E        ;'.'
03018  2538  20 80 2F           JSR XX2780
03019  253B  CA                 DEX 
03020  253C  D0 F8              BNE XX1D36
03021  253E  A2 03              LDX  #XX228F-XX228C ;#$03
03022  2540  20 5E 30           JSR XX285E
03023  2543  AD 50 10           LDA XX0850
03024  2546  20 F9 27           JSR XX1FF9
03025  2549  AD 4F 10           LDA XX084F
03026  254C  20 F9 27           JSR XX1FF9
03027  254F  A2 08              LDX #AA2294-XX228C ;#$08






ASSEMBLERP64......PAGE 0057

LINE# LOC   CODE        LINE


03028  2551  20 5E 30           JSR XX285E
03029  2554  A9 03              LDA #$03
03030  2556  8D 6F 10           STA XX086F
03031  2559  60                 RTS 
03032  255A              ;********************************
03033  255A  A8          XX1D5A TAY 
03034  255B  6D 6F 10           ADC XX086F
03035  255E  C9 3A              CMP #$3A        ;':'
03036  2560  10 A9              BPL XX1D0B
03037  2562  8D 6F 10           STA XX086F
03038  2565  20 7E 2F    XX1D65 JSR XX277E
03039  2568  88                 DEY 
03040  2569  30 02              BMI XX1D6D
03041  256B  D0 F8              BNE XX1D65
03042  256D  60          XX1D6D RTS 
03043  256E              ;********************************
03044  256E  A9 02       XX1D6E LDA #$02
03045  2570  18                 CLC 
03046  2571  20 DC 24           JSR XX1CDC
03047  2574  A2 3A              LDX #$3A        ;':'
03048  2576  CA                 DEX 
03049  2577  EC 6F 10           CPX XX086F
03050  257A  B0 06              BCS XX1D82
03051  257C  A9 00              LDA #$00
03052  257E  38                 SEC 
03053  257F  20 DC 24           JSR XX1CDC
03054  2582  EE 72 10    XX1D82 INC XX0872
03055  2585  A2 3F              LDX #AA22CB-XX228C ;#$3F      ;'?'
03056  2587  20 5E 30           JSR XX285E
03057  258A  AE 5B 10           LDX XX085B
03058  258D  AD 5C 10           LDA XX085C
03059  2590  20 B8 27           JSR XX1FB8
03060  2593  CE 72 10           DEC XX0872
03061  2596  20 7E 2F           JSR XX277E
03062  2599  EE 6F 10           INC XX086F
03063  259C  A9 40              LDA #$40        ;'@'
03064  259E  2D 74 10           AND XX0874
03065  25A1  F0 13              BEQ XX1DB6
03066  25A3  AD 73 10           LDA XX0873
03067  25A6  F0 0E              BEQ XX1DB6
03068  25A8  AD 4D 10           LDA XX084D
03069  25AB  0D 4E 10           ORA XX084E
03070  25AE  F0 06              BEQ XX1DB6
03071  25B0  20 20 24           JSR XX1C20
03072  25B3  20 7E 2F           JSR XX277E
03073  25B6  EE 72 10    XX1DB6 INC XX0872
03074  25B9  A2 56              LDX #AA22E2-XX228C ;#$56      ;'V'
03075  25BB  20 5E 30           JSR XX285E
03076  25BE  CE 72 10           DEC XX0872
03077  25C1  4C AD 2F           JMP XX27AD
03078  25C4              ;********************************
03079  25C4  AD 06 11    XX1DC4 LDA XX0906
03080  25C7  8D 71 10           STA XX0871
03081  25CA  AD 71 10           LDA XX0871
03082  25CD  D0 14              BNE XX1DE3






ASSEMBLERP64......PAGE 0058

LINE# LOC   CODE        LINE


03083  25CF  A9 04              LDA #$04
03084  25D1  2D 74 10           AND XX0874
03085  25D4  F0 0C              BEQ XX1DE2
03086  25D6  AD 7F 10           LDA XX087F
03087  25D9  29 20              AND #$20        ;' '
03088  25DB  F0 18              BEQ XX1DF5
03089  25DD  AD 74 10           LDA XX0874
03090  25E0  10 13              BPL XX1DF5
03091  25E2  60          XX1DE2 RTS 
03092  25E3              ;********************************
03093  25E3  AD 74 10    XX1DE3 LDA XX0874
03094  25E6  29 10              AND #$10
03095  25E8  F0 F8              BEQ XX1DE2
03096  25EA  A9 00              LDA #$00
03097  25EC  8D 18 11           STA XX0918
03098  25EF  8D 19 11           STA XX0919
03099  25F2  8D 1A 11           STA XX091A
03100  25F5  AD 04 11    XX1DF5 LDA XX0904
03101  25F8  85 06              STA $06
03102  25FA  AD 05 11           LDA XX0905
03103  25FD  85 07              STA $07
03104  25FF  AD 02 11           LDA XX0902
03105  2602  48          XX1E02 PHA 
03106  2603  AD 07 11           LDA XX0907
03107  2606  48                 PHA 
03108  2607  A9 00              LDA #$00
03109  2609  8D 76 10           STA XX0876
03110  260C  AD 6F 10           LDA XX086F
03111  260F  F0 04              BEQ XX1E15
03112  2611  C9 3A              CMP #$3A        ;':'
03113  2613  90 06              BCC XX1E1B
03114  2615  A9 00       XX1E15 LDA #$00
03115  2617  38                 SEC 
03116  2618  20 DC 24           JSR XX1CDC
03117  261B  68          XX1E1B PLA 
03118  261C  AA                 TAX 
03119  261D  AD 67 10           LDA XX0867
03120  2620  20 B8 27           JSR XX1FB8
03121  2623  EE 76 10           INC XX0876
03122  2626  EE 76 10           INC XX0876
03123  2629  20 3B 27           JSR XX1F3B
03124  262C  AD 7F 10           LDA XX087F
03125  262F  29 20              AND #$20        ;' '
03126  2631  F0 0B              BEQ XX1E3E
03127  2633  A9 2B              LDA #$2B        ;'+'
03128  2635  20 80 2F           JSR XX2780
03129  2638  EE 76 10           INC XX0876
03130  263B  4C 41 26           JMP XX1E41
03131  263E              ;********************************
03132  263E  20 3B 27    XX1E3E JSR XX1F3B
03133  2641  A0 00       XX1E41 LDY #$00
03134  2643  68                 PLA 
03135  2644  AA                 TAX 
03136  2645  A5 07              LDA $07
03137  2647  20 2C 27           JSR XX1F2C






ASSEMBLERP64......PAGE 0059

LINE# LOC   CODE        LINE


03138  264A  A5 06              LDA $06
03139  264C  20 2C 27           JSR XX1F2C
03140  264F  20 38 27           JSR XX1F38
03141  2652  8A                 TXA 
03142  2653  30 0A              BMI XX1E5F
03143  2655  C9 04              CMP #$04
03144  2657  30 06              BMI XX1E5F
03145  2659  A2 02              LDX #$02
03146  265B  38                 SEC 
03147  265C  E9 02              SBC #$02
03148  265E              ;********************************
03149  265E  2C                 .BYTE $2C
03150  265F              ;********************************
03151  265F  A9 00       XX1E5F LDA #$00
03152  2661  48                 PHA 
03153  2662  CA          XX1E62 DEX 
03154  2663  30 13              BMI XX1E78
03155  2665  B9 18 11           LDA XX0918,Y
03156  2668  20 2C 27           JSR XX1F2C
03157  266B  20 3B 27           JSR XX1F3B
03158  266E  C8                 INY 
03159  266F  E6 06              INC $06
03160  2671  D0 02              BNE XX1E75
03161  2673  E6 07              INC $07
03162  2675  4C 62 26    XX1E75 JMP XX1E62
03163  2678              ;********************************
03164  2678  AD 62 10    XX1E78 LDA XX0862
03165  267B  F0 03              BEQ XX1E80
03166  267D  4C 0B 27           JMP XX1F0B
03167  2680              ;********************************
03168  2680  AC 76 10    XX1E80 LDY XX0876
03169  2683  20 3E 27    XX1E83 JSR XX1F3E
03170  2686  C8                 INY 
03171  2687  C0 16              CPY #$16
03172  2689  30 F8              BMI XX1E83
03173  268B  EE 77 10           INC XX0877
03174  268E  A2 00              LDX #$00
03175  2690  AD 71 10           LDA XX0871
03176  2693  D0 4D              BNE XX1EE2
03177  2695  AD 80 10           LDA XX0880
03178  2698  C9 3B              CMP #$3B        ;';'
03179  269A  F0 46              BEQ XX1EE2
03180  269C  A0 00              LDY #$00
03181  269E  B9 80 10           LDA XX0880,Y
03182  26A1  C9 20              CMP #$20        ;' '
03183  26A3  F0 24              BEQ XX1EC9
03184  26A5  BD 80 10    XX1EA5 LDA XX0880,X
03185  26A8  E8                 INX 
03186  26A9  C9 20              CMP #$20        ;' '
03187  26AB  D0 07              BNE XX1EB4
03188  26AD  EC 77 10           CPX XX0877
03189  26B0  B0 56              BCS XX1F08
03190  26B2  90 F1              BCC XX1EA5
03191  26B4  20 80 2F    XX1EB4 JSR XX2780
03192  26B7  C8                 INY 






ASSEMBLERP64......PAGE 0060

LINE# LOC   CODE        LINE


03193  26B8  EC 77 10           CPX XX0877
03194  26BB  B0 4B              BCS XX1F08
03195  26BD  BD 80 10           LDA XX0880,X
03196  26C0  E8                 INX 
03197  26C1  C9 20              CMP #$20        ;' '
03198  26C3  D0 EF              BNE XX1EB4
03199  26C5  20 80 2F           JSR XX2780
03200  26C8  C8                 INY 
03201  26C9  C0 07       XX1EC9 CPY #$07
03202  26CB  B0 06              BCS XX1ED3
03203  26CD  20 3E 27           JSR XX1F3E
03204  26D0  C8                 INY 
03205  26D1  D0 F6              BNE XX1EC9
03206  26D3  BD 80 10    XX1ED3 LDA XX0880,X
03207  26D6  C9 20              CMP #$20        ;' '
03208  26D8  D0 08              BNE XX1EE2
03209  26DA  E8                 INX 
03210  26DB  EC 77 10           CPX XX0877
03211  26DE  B0 28              BCS XX1F08
03212  26E0  90 F1              BCC XX1ED3
03213  26E2  EC 77 10    XX1EE2 CPX XX0877
03214  26E5  B0 21              BCS XX1F08
03215  26E7  BD 80 10           LDA XX0880,X
03216  26EA  C9 3B              CMP #$3B        ;';'
03217  26EC  D0 13              BNE XX1F01
03218  26EE  48                 PHA 
03219  26EF  BD 7F 10           LDA XX087F,X
03220  26F2  C9 20              CMP #$20        ;' '
03221  26F4  D0 0A              BNE XX1F00
03222  26F6  C0 17       XX1EF6 CPY #$17
03223  26F8  B0 06              BCS XX1F00
03224  26FA  20 3E 27           JSR XX1F3E
03225  26FD  C8                 INY 
03226  26FE  D0 F6              BNE XX1EF6
03227  2700  68          XX1F00 PLA 
03228  2701  E8          XX1F01 INX 
03229  2702  20 80 2F           JSR XX2780
03230  2705  C8                 INY 
03231  2706  D0 DA              BNE XX1EE2
03232  2708  CE 77 10    XX1F08 DEC XX0877
03233  270B  20 7E 2F    XX1F0B JSR XX277E
03234  270E  EE 6F 10           INC XX086F
03235  2711  EE 62 10           INC XX0862
03236  2714  68                 PLA 
03237  2715  F0 14              BEQ XX1F2B
03238  2717  AA                 TAX 
03239  2718  AD 74 10           LDA XX0874
03240  271B  30 04              BMI XX1F21
03241  271D  8A                 TXA 
03242  271E  4C 02 26           JMP XX1E02
03243  2721              ;********************************
03244  2721  8A          XX1F21 TXA 
03245  2722  18                 CLC 
03246  2723  65 06              ADC $06
03247  2725  85 06              STA $06






ASSEMBLERP64......PAGE 0061

LINE# LOC   CODE        LINE


03248  2727  90 02              BCC XX1F2B
03249  2729  E6 07              INC $07
03250  272B  60          XX1F2B RTS 
03251  272C              ;********************************
03252  272C  EE 76 10    XX1F2C INC XX0876
03253  272F  EE 76 10           INC XX0876
03254  2732  4C F9 27           JMP XX1FF9
03255  2735              ;********************************
03256  2735  20 3B 27    XX1F35 JSR XX1F3B
03257  2738  20 3B 27    XX1F38 JSR XX1F3B
03258  273B  EE 76 10    XX1F3B INC XX0876
03259  273E  A9 20       XX1F3E LDA #$20        ;' '
03260  2740  4C 80 2F           JMP XX2780
03261  2743              ;********************************
03262  2743  EE 72 10    XX1F43 INC XX0872
03263  2746  AD 74 10           LDA XX0874
03264  2749  29 10              AND #$10
03265  274B  F0 5F              BEQ XX1FAC
03266  274D  AD 6F 10           LDA XX086F
03267  2750  C9 3A              CMP #$3A        ;':'
03268  2752  30 06              BMI XX1F5A
03269  2754  A9 00              LDA #$00
03270  2756  38                 SEC 
03271  2757  20 DC 24           JSR XX1CDC
03272  275A  20 C4 25    XX1F5A JSR XX1DC4
03273  275D  A2 00              LDX #$00
03274  275F  20 5E 30           JSR XX285E
03275  2762  20 38 27           JSR XX1F38
03276  2765  AE 5F 10           LDX XX085F
03277  2768  8A                 TXA 
03278  2769  29 0F              AND #$0F
03279  276B  E0 20              CPX #$20        ;' '
03280  276D  90 02              BCC XX1F71
03281  276F  69 09              ADC #$09
03282  2771  E0 10       XX1F71 CPX #$10
03283  2773  90 02              BCC XX1F77
03284  2775  69 09              ADC #$09
03285  2777  AA          XX1F77 TAX 
03286  2778  CA                 DEX 
03287  2779  8A                 TXA 
03288  277A  0A                 ASL A
03289  277B  AA                 TAX 
03290  277C  BD 1B 2E           LDA XX261B,X
03291  277F  85 0A              STA $0A
03292  2781  BD 1C 2E           LDA XX261C,X
03293  2784  85 0B              STA $0B
03294  2786  A0 00              LDY #$00
03295  2788  B1 0A       XX1F88 LDA ($0A),Y
03296  278A  20 80 2F           JSR XX2780
03297  278D  C8                 INY 
03298  278E  C0 15              CPY #$15
03299  2790  D0 F6              BNE XX1F88
03300  2792  CE 03 11    XX1F92 DEC XX0903
03301  2795  30 0A              BMI XX1FA1
03302  2797  F0 08              BEQ XX1FA1






ASSEMBLERP64......PAGE 0062

LINE# LOC   CODE        LINE


03303  2799  A9 2A              LDA #$2A        ;'*'
03304  279B  20 80 2F           JSR XX2780
03305  279E  4C 92 27           JMP XX1F92
03306  27A1              ;********************************
03307  27A1  A9 5E       XX1FA1 LDA #$5E        ;'^'
03308  27A3  20 80 2F           JSR XX2780
03309  27A6  20 7E 2F           JSR XX277E
03310  27A9  EE 6F 10           INC XX086F
03311  27AC  EE 5B 10    XX1FAC INC XX085B
03312  27AF  D0 03              BNE XX1FB4
03313  27B1  EE 5C 10           INC XX085C
03314  27B4  CE 72 10    XX1FB4 DEC XX0872
03315  27B7  60                 RTS 
03316  27B8              ;********************************
03317  27B8  8E 7D 10    XX1FB8 STX XX087D
03318  27BB  8D 7E 10           STA XX087E
03319  27BE  A2 04              LDX #$04
03320  27C0  86 18              STX $18
03321  27C2  A6 18       XX1FC2 LDX $18
03322  27C4  A0 30              LDY #$30        ;'0'
03323  27C6  D0 01              BNE XX1FC9
03324  27C8  C8          XX1FC8 INY 
03325  27C9  38          XX1FC9 SEC 
03326  27CA  AD 7D 10           LDA XX087D
03327  27CD  FD 55 2E           SBC XX2655,X
03328  27D0  8D 7D 10           STA XX087D
03329  27D3  AD 7E 10           LDA XX087E
03330  27D6  FD 5A 2E           SBC XX265A,X
03331  27D9  8D 7E 10           STA XX087E
03332  27DC  B0 EA              BCS XX1FC8
03333  27DE  AD 7D 10           LDA XX087D
03334  27E1  7D 55 2E           ADC XX2655,X
03335  27E4  8D 7D 10           STA XX087D
03336  27E7  AD 7E 10           LDA XX087E
03337  27EA  7D 5A 2E           ADC XX265A,X
03338  27ED  8D 7E 10           STA XX087E
03339  27F0  98                 TYA 
03340  27F1  20 80 2F           JSR XX2780
03341  27F4  C6 18              DEC $18
03342  27F6  10 CA              BPL XX1FC2
03343  27F8  60                 RTS 
03344  27F9              ;********************************
03345  27F9  48          XX1FF9 PHA 
03346  27FA  4A                 LSR A
03347  27FB  4A                 LSR A
03348  27FC  4A                 LSR A
03349  27FD  4A                 LSR A
03350  27FE  20 04 28           JSR XX2004
03351  2801  68                 PLA 
03352  2802  29 0F              AND #$0F
03353  2804  18          XX2004 CLC 
03354  2805  69 30              ADC #$30        ;'0'
03355  2807  C9 3A              CMP #$3A        ;':'
03356  2809              ;       BMI XX200E
03357  2809  30 03       XX2009 BMI XX200E






ASSEMBLERP64......PAGE 0063

LINE# LOC   CODE        LINE


03358  280B  18                 CLC 
03359  280C  69 07              ADC #$07
03360  280E  4C 80 2F    XX200E JMP XX2780
03361  2811              ;********************************
03362  2811              .LIB   ASSTABLE64.ASM
03363  2811              ;********************************
03364  2811              ;FILE: ASSTABLEA.ASM.SEQ
03365  2811              ;********************************
03366  2811              ;
03367  2811              ;********************************
03368  2811              ; FUNCTION VECTOR TABLE
03369  2811              ;********************************
03370  2811              ;
03371  2811  F3          XX2011 .BYTE <BB10F3   ;$F3
03372  2812  18          XX2012 .BYTE >BB10F3   ;$10
03373  2813              ;
03374  2813  F0                 .BYTE <BB10F0   ;$F0
03375  2814  18                 .BYTE >BB10F0   ;$10
03376  2815              ;
03377  2815  ED                 .BYTE <BB10ED   ;$ED
03378  2816  18                 .BYTE >BB10ED   ;$10
03379  2817              ;
03380  2817  EA                 .BYTE <BB10EA   ;$EA
03381  2818  18                 .BYTE >BB10EA   ;$10
03382  2819              ;
03383  2819  E7                 .BYTE <BB10E7   ;$E7
03384  281A  18                 .BYTE >BB10E7   ;$10
03385  281B              ;
03386  281B  E4                 .BYTE <BB10E4   ;$E4
03387  281C  18                 .BYTE >BB10E4   ;$10
03388  281D              ;
03389  281D  E1                 .BYTE <BB10E1   ;$E1
03390  281E  18                 .BYTE >BB10E1   ;$10
03391  281F              ;
03392  281F  E1                 .BYTE <BB10E1   ;$E1
03393  2820  18                 .BYTE >BB10E1   ;$10
03394  2821              ;
03395  2821  DE                 .BYTE <BB10DE   ;$DE
03396  2822  18                 .BYTE >BB10DE   ;$10
03397  2823              ;
03398  2823  DB                 .BYTE <BB10DB   ;$DB
03399  2824  18                 .BYTE >BB10DB   ;$10
03400  2825              ;
03401  2825  D8                 .BYTE <BB10D8   ;$D8
03402  2826  18                 .BYTE >BB10D8   ;$10
03403  2827              ;
03404  2827  D5                 .BYTE <BB10D5   ;$D5
03405  2828  18                 .BYTE >BB10D5   ;$10
03406  2829              ;
03407  2829  D2                 .BYTE <ZZ10D2   ;$D2
03408  282A  18                 .BYTE >ZZ10D2   ;$10
03409  282B              ;
03410  282B  1C                 .BYTE <WW2A1C   ;$1C
03411  282C  32                 .BYTE >WW2A1C   ;$2A ;'*'
03412  282D              ;






ASSEMBLERP64......PAGE 0064

LINE# LOC   CODE        LINE


03413  282D  3A                 .BYTE <WW2B3A   ;$3A ;':'
03414  282E  33                 .BYTE >WW2B3A   ;$2B ;'+'
03415  282F              ;
03416  282F  21                 .BYTE <BB1221   ;$21 ;'!'
03417  2830  1A                 .BYTE >BB1221   ;$12
03418  2831              ;
03419  2831  1E                 .BYTE <WW121E   ;$1E
03420  2832  1A                 .BYTE >WW121E   ;$12
03421  2833              ;
03422  2833  F3                 .BYTE <BB11F3   ;$F3
03423  2834  19                 .BYTE >BB11F3   ;$11
03424  2835              ;
03425  2835  83                 .BYTE <BB1183   ;$83
03426  2836  19                 .BYTE >BB1183   ;$11
03427  2837              ;
03428  2837  AD                 .BYTE <XX10AD   ;$AD
03429  2838  18                 .BYTE >XX10AD   ;$10
03430  2839              ;
03431  2839  35                 .BYTE <XX1135   ;$35 ;'5'
03432  283A  19                 .BYTE >XX1135   ;$11
03433  283B              ;
03434  283B  20                 .BYTE <WW1120   ;$20 ;' '
03435  283C  19                 .BYTE >WW1120   ;$11
03436  283D              ;
03437  283D  11                 .BYTE <WW1111   ;$11
03438  283E  19                 .BYTE >WW1111   ;$11
03439  283F              ;
03440  283F  4A                 .BYTE <BB0F4A   ;$4A ;'J'
03441  2840  17                 .BYTE >BB0F4A   ;$0F
03442  2841              ;
03443  2841  4D                 .BYTE <BB0F4D   ;$4D ;'M'
03444  2842  17                 .BYTE >BB0F4D   ;$0F
03445  2843              ;
03446  2843  47                 .BYTE <WW0F47   ;$47 ;'G'
03447  2844  17                 .BYTE >WW0F47   ;$0F
03448  2845              ;********************************
03449  2845              ; ASSEMBER DIRECTIVES
03450  2845              ;********************************
03451  2845  42 59 54    AA2045 .BYTE 'BYT'     ;BYTE
03452  2848  57 4F 52           .BYTE 'WOR'     ;WORD
03453  284B  44 42 59           .BYTE 'DBY'     ;DBYTE
03454  284E  53 4B 49           .BYTE 'SKI'     ;SKIP
03455  2851  50 41 47           .BYTE 'PAG'     ;PAGE
03456  2854  45 4E 44           .BYTE 'END'     ;END
03457  2857  4F 50 54           .BYTE 'OPT'     ;OPT
03458  285A  46 49 4C           .BYTE 'FIL'     ;FIL
03459  285D  4C 49 42           .BYTE 'LIB'     ;LIB
03460  2860  49 46 4E           .BYTE 'IFN'
03461  2863  49 46 45           .BYTE 'IFE'
03462  2866  4D 4E 44    XX2066 .BYTE 'MND'     ;MACRO END
03463  2869  4D 41 43           .BYTE 'MAC'     ;MACRO BEGIN
03464  286C  47 45 4E    ZZ206C .BYTE 'GEN'     ;GENERATE
03465  286F  4E 4F 47           .BYTE 'NOG'     ;NOGENERATE
03466  2872  53 59 4D           .BYTE 'SYM'     ;SYMBOL
03467  2875  4E 4F 53           .BYTE 'NOS'     ;NOSYMBOL






ASSEMBLERP64......PAGE 0065

LINE# LOC   CODE        LINE


03468  2878  4E 4F 43           .BYTE 'NOC'
03469  287B  43 4E 54           .BYTE 'CNT'
03470  287E  43 4F 55           .BYTE 'COU'
03471  2881  45 52 52           .BYTE 'ERR'     ;ERRORS
03472  2884  4E 4F 45           .BYTE 'NOE'     ;NOERRORS
03473  2887  4D 45 4D           .BYTE 'MEM'
03474  288A  4E 4F 4D           .BYTE 'NOM'
03475  288D  4C 49 53           .BYTE 'LIS'     ;LIST
03476  2890  4E 4F 4C           .BYTE 'NOL'     ;NOLIST
03477  2893              ;********************************
03478  2893              ; ASSEBMLER OPCODES
03479  2893              ;********************************
03480  2893  41 44 43    ZZ2093 .BYTE 'ADC'
03481  2896  41 4E 44           .BYTE 'AND'
03482  2899  41 53 4C           .BYTE 'ASL'
03483  289C  42 43 43           .BYTE 'BCC'
03484  289F  42 43 53           .BYTE 'BCS'
03485  28A2  42 45 51           .BYTE 'BEQ'
03486  28A5  42 49 54           .BYTE 'BIT'
03487  28A8  42 4D 49           .BYTE 'BMI'
03488  28AB  42 4E 45           .BYTE 'BNE'
03489  28AE  42 50 4C           .BYTE 'BPL'
03490  28B1  42 52 4B           .BYTE 'BRK'
03491  28B4  42 56 43           .BYTE 'BVC'
03492  28B7  42 56 53           .BYTE 'BVS'
03493  28BA  43 4C 43           .BYTE 'CLC'
03494  28BD  43 4C 44           .BYTE 'CLD'
03495  28C0  43 4C 49           .BYTE 'CLI'
03496  28C3  43 4C 56           .BYTE 'CLV'
03497  28C6  43 4D 50           .BYTE 'CMP'
03498  28C9  43 50 58           .BYTE 'CPX'
03499  28CC  43 50 59           .BYTE 'CPY'
03500  28CF  44 45 43           .BYTE 'DEC'
03501  28D2  44 45 58           .BYTE 'DEX'
03502  28D5  44 45 59           .BYTE 'DEY'
03503  28D8  45 4F 52           .BYTE 'EOR'
03504  28DB  49 4E 43           .BYTE 'INC'
03505  28DE  49 4E 58           .BYTE 'INX'
03506  28E1  49 4E 59           .BYTE 'INY'
03507  28E4  4A 4D 50           .BYTE 'JMP'
03508  28E7  4A 53 52           .BYTE 'JSR'
03509  28EA  4C 44 41           .BYTE 'LDA'
03510  28ED  4C 44 58           .BYTE 'LDX'
03511  28F0  4C 44 59           .BYTE 'LDY'
03512  28F3  4C 53 52           .BYTE 'LSR'
03513  28F6  4E 4F 50           .BYTE 'NOP'
03514  28F9  4F 52 41           .BYTE 'ORA'
03515  28FC  50 48 41           .BYTE 'PHA'
03516  28FF  50 48 50           .BYTE 'PHP'
03517  2902  50 4C 41           .BYTE 'PLA'
03518  2905  50 4C 50           .BYTE 'PLP'
03519  2908  52 4F 4C           .BYTE 'ROL'
03520  290B  52 4F 52           .BYTE 'ROR'
03521  290E  52 54 49           .BYTE 'RTI'
03522  2911  52 54 53           .BYTE 'RTS'






ASSEMBLERP64......PAGE 0066

LINE# LOC   CODE        LINE


03523  2914  53 42 43           .BYTE 'SBC'
03524  2917  53 45 43           .BYTE 'SEC'
03525  291A  53 45 44           .BYTE 'SED'
03526  291D  53 45 49           .BYTE 'SEI'
03527  2920  53 54 41           .BYTE 'STA'
03528  2923  53 54 58           .BYTE 'STX'
03529  2926  53 54 59           .BYTE 'STY'
03530  2929  54 41 58           .BYTE 'TAX'
03531  292C  54 41 59           .BYTE 'TAY'
03532  292F  54 53 58           .BYTE 'TSX'
03533  2932  54 58 41           .BYTE 'TXA'
03534  2935  54 58 53           .BYTE 'TXS'
03535  2938  54 59 41           .BYTE 'TYA'
03536  293B              ;********************************
03537  293B              ;
03538  293B              ;********************************
03539  293B  FF          XX213B .BYTE $FF
03540  293C  0D                 .BYTE $0D
03541  293D  1B                 .BYTE $1B
03542  293E  29                 .BYTE $29       ;')'
03543  293F  37                 .BYTE $37       ;'7'
03544  2940  45                 .BYTE $45       ;'E'
03545  2941  53                 .BYTE $53       ;'S'
03546  2942  61                 .BYTE $61
03547  2943  6F                 .BYTE $6F
03548  2944  7D                 .BYTE $7D
03549  2945  8B                 .BYTE $8B
03550  2946  99                 .BYTE $99
03551  2947  A7                 .BYTE $A7
03552  2948  B5                 .BYTE $B5
03553  2949              ;********************************
03554  2949              ;
03555  2949              ;********************************
03556  2949  C3          XX2149 .BYTE $C3
03557  294A  FF          XX214A .BYTE $FF
03558  294B  FF                 .BYTE $FF
03559  294C  FF                 .BYTE $FF
03560  294D  FF                 .BYTE $FF
03561  294E  04                 .BYTE $04
03562  294F  FF                 .BYTE $FF
03563  2950  FF                 .BYTE $FF
03564  2951  FF                 .BYTE $FF
03565  2952  FF                 .BYTE $FF
03566  2953  FF                 .BYTE $FF
03567  2954  FF                 .BYTE $FF
03568  2955  FF                 .BYTE $FF
03569  2956  FF                 .BYTE $FF
03570  2957  FF                 .BYTE $FF
03571  2958  04                 .BYTE $04
03572  2959  04                 .BYTE $04
03573  295A  FF                 .BYTE $FF
03574  295B  FF                 .BYTE $FF
03575  295C  00                 .BYTE $00
03576  295D  04                 .BYTE $04
03577  295E  00                 .BYTE $00






ASSEMBLERP64......PAGE 0067

LINE# LOC   CODE        LINE


03578  295F  04                 .BYTE $04
03579  2960  00                 .BYTE $00
03580  2961  00                 .BYTE $00
03581  2962  04                 .BYTE $04
03582  2963  00                 .BYTE $00
03583  2964  FF                 .BYTE $FF
03584  2965  00                 .BYTE $00
03585  2966  14                 .BYTE $14
03586  2967  14                 .BYTE $14
03587  2968  FF                 .BYTE $FF
03588  2969  FF                 .BYTE $FF
03589  296A  10                 .BYTE $10
03590  296B  FF                 .BYTE $FF
03591  296C  FF                 .BYTE $FF
03592  296D  14                 .BYTE $14
03593  296E  FF                 .BYTE $FF
03594  296F  10                 .BYTE $10
03595  2970  FF                 .BYTE $FF
03596  2971  10                 .BYTE $10
03597  2972  FF                 .BYTE $FF
03598  2973  FF                 .BYTE $FF
03599  2974  FF                 .BYTE $FF
03600  2975  FF                 .BYTE $FF
03601  2976  FF                 .BYTE $FF
03602  2977  FF                 .BYTE $FF
03603  2978  FF                 .BYTE $FF
03604  2979  FF                 .BYTE $FF
03605  297A  FF                 .BYTE $FF
03606  297B  FF                 .BYTE $FF
03607  297C  10                 .BYTE $10
03608  297D  FF                 .BYTE $FF
03609  297E  14                 .BYTE $14
03610  297F  FF                 .BYTE $FF
03611  2980  FF                 .BYTE $FF
03612  2981  FF                 .BYTE $FF
03613  2982  FF                 .BYTE $FF
03614  2983  FF                 .BYTE $FF
03615  2984  FF                 .BYTE $FF
03616  2985  FF                 .BYTE $FF
03617  2986  FF                 .BYTE $FF
03618  2987  FF                 .BYTE $FF
03619  2988  FF                 .BYTE $FF
03620  2989  FF                 .BYTE $FF
03621  298A  FF                 .BYTE $FF
03622  298B  FF                 .BYTE $FF
03623  298C  FF                 .BYTE $FF
03624  298D  FF                 .BYTE $FF
03625  298E  FF                 .BYTE $FF
03626  298F  FF                 .BYTE $FF
03627  2990  FF                 .BYTE $FF
03628  2991  FF                 .BYTE $FF
03629  2992  FF                 .BYTE $FF
03630  2993  FF                 .BYTE $FF
03631  2994  FF                 .BYTE $FF
03632  2995  FF                 .BYTE $FF






ASSEMBLERP64......PAGE 0068

LINE# LOC   CODE        LINE


03633  2996  FF                 .BYTE $FF
03634  2997  FF                 .BYTE $FF
03635  2998  FF                 .BYTE $FF
03636  2999  FF                 .BYTE $FF
03637  299A  FF                 .BYTE $FF
03638  299B  FF                 .BYTE $FF
03639  299C  FF                 .BYTE $FF
03640  299D  FF                 .BYTE $FF
03641  299E  FF                 .BYTE $FF
03642  299F  FF                 .BYTE $FF
03643  29A0  FF                 .BYTE $FF
03644  29A1  FF                 .BYTE $FF
03645  29A2  FF                 .BYTE $FF
03646  29A3  FF                 .BYTE $FF
03647  29A4  FF                 .BYTE $FF
03648  29A5  FF                 .BYTE $FF
03649  29A6  FF                 .BYTE $FF
03650  29A7  FF                 .BYTE $FF
03651  29A8  FF                 .BYTE $FF
03652  29A9  FF                 .BYTE $FF
03653  29AA  FF                 .BYTE $FF
03654  29AB  FF                 .BYTE $FF
03655  29AC  00                 .BYTE $00
03656  29AD  00                 .BYTE $00
03657  29AE              ;********************************
03658  29AE              ;
03659  29AE              ;********************************
03660  29AE  20          AA21AE .BYTE $20       ;' '
03661  29AF  FF                 .BYTE $FF
03662  29B0  FF                 .BYTE $FF
03663  29B1  FF                 .BYTE $FF
03664  29B2  FF                 .BYTE $FF
03665  29B3  FF                 .BYTE $FF
03666  29B4  FF                 .BYTE $FF
03667  29B5  FF                 .BYTE $FF
03668  29B6  FF                 .BYTE $FF
03669  29B7  FF                 .BYTE $FF
03670  29B8  FF                 .BYTE $FF
03671  29B9  FF                 .BYTE $FF
03672  29BA  FF                 .BYTE $FF
03673  29BB  FF                 .BYTE $FF
03674  29BC  FF                 .BYTE $FF
03675  29BD  FF                 .BYTE $FF
03676  29BE  FF                 .BYTE $FF
03677  29BF  FF                 .BYTE $FF
03678  29C0  FF                 .BYTE $FF
03679  29C1  FF                 .BYTE $FF
03680  29C2  FF                 .BYTE $FF
03681  29C3  FF                 .BYTE $FF
03682  29C4  FF                 .BYTE $FF
03683  29C5  FF                 .BYTE $FF
03684  29C6  FF                 .BYTE $FF
03685  29C7  FF                 .BYTE $FF
03686  29C8  FF                 .BYTE $FF
03687  29C9  FF                 .BYTE $FF






ASSEMBLERP64......PAGE 0069

LINE# LOC   CODE        LINE


03688  29CA  FF                 .BYTE $FF
03689  29CB  FF                 .BYTE $FF
03690  29CC  FF                 .BYTE $FF
03691  29CD  FF                 .BYTE $FF
03692  29CE  FF                 .BYTE $FF
03693  29CF  FF                 .BYTE $FF
03694  29D0  FF                 .BYTE $FF
03695  29D1  FF                 .BYTE $FF
03696  29D2  FF                 .BYTE $FF
03697  29D3  FF                 .BYTE $FF
03698  29D4  FF                 .BYTE $FF
03699  29D5  FF                 .BYTE $FF
03700  29D6  10                 .BYTE $10
03701  29D7  10                 .BYTE $10
03702  29D8  FF                 .BYTE $FF
03703  29D9  FF                 .BYTE $FF
03704  29DA  FF                 .BYTE $FF
03705  29DB  FF                 .BYTE $FF
03706  29DC  FF                 .BYTE $FF
03707  29DD  FF                 .BYTE $FF
03708  29DE  FF                 .BYTE $FF
03709  29DF  FF                 .BYTE $FF
03710  29E0  FF                 .BYTE $FF
03711  29E1  FF                 .BYTE $FF
03712  29E2  FF                 .BYTE $FF
03713  29E3  FF                 .BYTE $FF
03714  29E4  08                 .BYTE $08
03715  29E5  FF                 .BYTE $FF
03716  29E6  FF                 .BYTE $FF
03717  29E7  FF                 .BYTE $FF
03718  29E8  FF                 .BYTE $FF
03719  29E9  00                 .BYTE $00
03720  29EA  FF                 .BYTE $FF
03721  29EB  00                 .BYTE $00
03722  29EC  FF                 .BYTE $FF
03723  29ED  FF                 .BYTE $FF
03724  29EE  00                 .BYTE $00
03725  29EF  FF                 .BYTE $FF
03726  29F0  FF                 .BYTE $FF
03727  29F1  FF                 .BYTE $FF
03728  29F2  0C                 .BYTE $0C
03729  29F3  0C                 .BYTE $0C
03730  29F4  00                 .BYTE $00
03731  29F5  00                 .BYTE $00
03732  29F6  08                 .BYTE $08
03733  29F7  0C                 .BYTE $0C
03734  29F8  08                 .BYTE $08
03735  29F9  0C                 .BYTE $0C
03736  29FA  08                 .BYTE $08
03737  29FB  08                 .BYTE $08
03738  29FC  0C                 .BYTE $0C
03739  29FD  08                 .BYTE $08
03740  29FE  FF                 .BYTE $FF
03741  29FF  FF                 .BYTE $FF
03742  2A00  1C                 .BYTE $1C






ASSEMBLERP64......PAGE 0070

LINE# LOC   CODE        LINE


03743  2A01  1C                 .BYTE $1C
03744  2A02  FF                 .BYTE $FF
03745  2A03  FF                 .BYTE $FF
03746  2A04  18                 .BYTE $18
03747  2A05  FF                 .BYTE $FF
03748  2A06  FF                 .BYTE $FF
03749  2A07  1C                 .BYTE $1C
03750  2A08  FF                 .BYTE $FF
03751  2A09  FF                 .BYTE $FF
03752  2A0A  FF                 .BYTE $FF
03753  2A0B  18                 .BYTE $18
03754  2A0C  FF                 .BYTE $FF
03755  2A0D  FF                 .BYTE $FF
03756  2A0E  18                 .BYTE $18
03757  2A0F  18                 .BYTE $18
03758  2A10  FF                 .BYTE $FF
03759  2A11  FF                 .BYTE $FF
03760  2A12  FF                 .BYTE $FF
03761  2A13  FF                 .BYTE $FF
03762  2A14  FF                 .BYTE $FF
03763  2A15  FF                 .BYTE $FF
03764  2A16  FF                 .BYTE $FF
03765  2A17  FF                 .BYTE $FF
03766  2A18  1C                 .BYTE $1C
03767  2A19  FF                 .BYTE $FF
03768  2A1A  FF                 .BYTE $FF
03769  2A1B  FF                 .BYTE $FF
03770  2A1C              ;********************************
03771  2A1C              ;
03772  2A1C              ;********************************
03773  2A1C  01          XX221C .BYTE $01
03774  2A1D  01                 .BYTE $01
03775  2A1E  05                 .BYTE $05
03776  2A1F  15                 .BYTE $15
03777  2A20  15                 .BYTE $15
03778  2A21  15                 .BYTE $15
03779  2A22  07                 .BYTE $07
03780  2A23  15                 .BYTE $15
03781  2A24  15                 .BYTE $15
03782  2A25  15                 .BYTE $15
03783  2A26  14                 .BYTE $14
03784  2A27  15                 .BYTE $15
03785  2A28  15                 .BYTE $15
03786  2A29  14                 .BYTE $14
03787  2A2A  14                 .BYTE $14
03788  2A2B  14                 .BYTE $14
03789  2A2C  14                 .BYTE $14
03790  2A2D  01                 .BYTE $01
03791  2A2E  06                 .BYTE $06
03792  2A2F  06                 .BYTE $06
03793  2A30  0C                 .BYTE $0C
03794  2A31  14                 .BYTE $14
03795  2A32  14                 .BYTE $14
03796  2A33  01                 .BYTE $01
03797  2A34  0C                 .BYTE $0C






ASSEMBLERP64......PAGE 0071

LINE# LOC   CODE        LINE


03798  2A35  14                 .BYTE $14
03799  2A36  14                 .BYTE $14
03800  2A37  03                 .BYTE $03
03801  2A38  04                 .BYTE $04
03802  2A39  01                 .BYTE $01
03803  2A3A  0B                 .BYTE $0B
03804  2A3B  08                 .BYTE $08
03805  2A3C  05                 .BYTE $05
03806  2A3D  14                 .BYTE $14
03807  2A3E  01                 .BYTE $01
03808  2A3F  14                 .BYTE $14
03809  2A40  14                 .BYTE $14
03810  2A41  14                 .BYTE $14
03811  2A42  14                 .BYTE $14
03812  2A43  05                 .BYTE $05
03813  2A44  05                 .BYTE $05
03814  2A45  14                 .BYTE $14
03815  2A46  14                 .BYTE $14
03816  2A47  01                 .BYTE $01
03817  2A48  14                 .BYTE $14
03818  2A49  14                 .BYTE $14
03819  2A4A  14                 .BYTE $14
03820  2A4B  02                 .BYTE $02
03821  2A4C  09                 .BYTE $09
03822  2A4D  0A                 .BYTE $0A
03823  2A4E  14                 .BYTE $14
03824  2A4F  14                 .BYTE $14
03825  2A50  14                 .BYTE $14
03826  2A51  14                 .BYTE $14
03827  2A52  14                 .BYTE $14
03828  2A53  14                 .BYTE $14
03829  2A54              ;********************************
03830  2A54              ;
03831  2A54              ;********************************
03832  2A54  61          XX2254 .BYTE $61
03833  2A55  21                 .BYTE $21       ;'!'
03834  2A56  06                 .BYTE $06
03835  2A57  90                 .BYTE $90
03836  2A58  B0                 .BYTE $B0
03837  2A59  F0                 .BYTE $F0
03838  2A5A  24                 .BYTE $24       ;'$'
03839  2A5B  30                 .BYTE $30       ;'0'
03840  2A5C  D0                 .BYTE $D0
03841  2A5D  10                 .BYTE $10
03842  2A5E  00                 .BYTE $00
03843  2A5F              ;********************************
03844  2A5F              ;
03845  2A5F              ;********************************
03846  2A5F  50                 .BYTE $50       ;'P'
03847  2A60  70                 .BYTE $70
03848  2A61  18                 .BYTE $18
03849  2A62  D8                 .BYTE $D8
03850  2A63  58                 .BYTE $58       ;'X'
03851  2A64  B8                 .BYTE $B8
03852  2A65  C1                 .BYTE $C1






ASSEMBLERP64......PAGE 0072

LINE# LOC   CODE        LINE


03853  2A66  E0                 .BYTE $E0
03854  2A67  C0                 .BYTE $C0
03855  2A68  C6                 .BYTE $C6
03856  2A69  CA                 .BYTE $CA
03857  2A6A  88                 .BYTE $88
03858  2A6B  41                 .BYTE $41       ;'A'
03859  2A6C  E6                 .BYTE $E6
03860  2A6D  E8                 .BYTE $E8
03861  2A6E  C8                 .BYTE $C8
03862  2A6F  4C                 .BYTE $4C
03863  2A70  20                 .BYTE $20
03864  2A71  A1                 .BYTE $A1
03865  2A72  A2                 .BYTE $A2
03866  2A73  A0                 .BYTE $A0
03867  2A74  46                 .BYTE $46       ;'F'
03868  2A75  EA                 .BYTE $EA
03869  2A76  01                 .BYTE $01
03870  2A77  48                 .BYTE $48       ;'H'
03871  2A78  08                 .BYTE $08
03872  2A79  68                 .BYTE $68
03873  2A7A  28                 .BYTE $28
03874  2A7B  26                 .BYTE $26
03875  2A7C  66                 .BYTE $66
03876  2A7D  40                 .BYTE $40       ;'@'
03877  2A7E  60                 .BYTE $60
03878  2A7F  E1                 .BYTE $E1
03879  2A80  38                 .BYTE $38       ;'8'
03880  2A81  F8                 .BYTE $F8
03881  2A82  78                 .BYTE $78
03882  2A83  81                 .BYTE $81
03883  2A84  86                 .BYTE $86
03884  2A85  84                 .BYTE $84
03885  2A86  AA                 .BYTE $AA
03886  2A87  A8                 .BYTE $A8
03887  2A88  BA                 .BYTE $BA
03888  2A89  8A                 .BYTE $8A
03889  2A8A  9A                 .BYTE $9A
03890  2A8B  98                 .BYTE $98
03891  2A8C              ;********************************
03892  2A8C              ;
03893  2A8C              ;********************************
03894  2A8C  2A          XX228C .BYTE $2A       ;'*'
03895  2A8D  2A                 .BYTE $2A       ;'*'
03896  2A8E  AA                 .BYTE $AA
03897  2A8F              ;********************************
03898  2A8F              ; ASSEMBLER OUTPUT MESSAGES
03899  2A8F              ; 
03900  2A8F              ; MESSGAES TERMINATE WITH 
03901  2A8F              ; LAST CHAR HIGH BIT SET
03902  2A8F              ;********************************
03903  2A8F  50 41       XX228F .BYTE 'PAGE'
03904  2A93  A0                 .BYTE $A0       ;SPACE $20 WITH BIT HIGH B
IT SET
03905  2A94              ;
03906  2A94  0D          AA2294 .BYTE $0D
03907  2A95  0D                 .BYTE $0D






ASSEMBLERP64......PAGE 0073

LINE# LOC   CODE        LINE


03908  2A96  4C 49              .BYTE 'LINE# LOC   CODE        LINE'
03909  2AB2  0D                 .BYTE $0D
03910  2AB3  0D                 .BYTE $0D
03911  2AB4  8D                 .BYTE $8D       ;CR $0D WITH HIGH BIT SET
03912  2AB5              ;
03913  2AB5  53 59       AA22B5 .BYTE 'SYMBOL TABLE OVERFLOW'
03914  2ACA  8D                 .BYTE $8D       ;CR $0D WITH HIGH BIT SET
03915  2ACB              ;
03916  2ACB  45 52       AA22CB .BYTE 'ERRORS ='
03917  2AD3  A0                 .BYTE $A0       ;SPACE $20 WITH BIT HIGH B
IT SET
03918  2AD4              ;
03919  2AD4  0D          AA22D4 .BYTE $0D
03920  2AD5  50 41              .BYTE 'PASS1'
03921  2ADA  8D          AA22DA .BYTE $8D       ;CR $0D WITH HIGH BIT SET
03922  2ADB              ;
03923  2ADB  0D          AA22DB .BYTE $0D
03924  2ADC  50 41              .BYTE 'PASS2'
03925  2AE1  8D                 .BYTE $8D       ;CR $0D WITH HIGH BIT SET
03926  2AE2              ;
03927  2AE2  0D          AA22E2 .BYTE $0D
03928  2AE3  45 4E              .BYTE 'END OF ASSEMBLY'
03929  2AF2  8D                 .BYTE $8D       ;CR $0D WITH HIGH BIT SET
03930  2AF3              ;
03931  2AF3  0D          AA22F3 .BYTE $0D       ;ERROR FIXED HAD AA22F5
03932  2AF4  0D                 .BYTE $0D
03933  2AF5  53 59              .BYTE 'SYMBOL TABLE'
03934  2B01  0D                 .BYTE $0D
03935  2B02  0D                 .BYTE $0D
03936  2B03  53 59              .BYTE 'SYMBOL VALUE'
03937  2B0F  8D                 .BYTE $8D       ;CR $0D WITH HIGH BIT SET
03938  2B10              ;
03939  2B10  0D          AA2310 .BYTE $0D
03940  2B11  53 4F              .BYTE 'SOURCE FILE NAME?'
03941  2B22  A0                 .BYTE $A0       ;SPACE $20 WITH BIT HIGH B
IT SET
03942  2B23              ;
03943  2B23  0D          AA2323 .BYTE $0D
03944  2B24  46 49              .BYTE 'FILE NAME ERROR'
03945  2B33  8D                 .BYTE $8D       ;CR $0D WITH HIGH BIT SET
03946  2B34              ;
03947  2B34  0D          AA2334 .BYTE $0D
03948  2B35  2E 4C              .BYTE '.LIB ERROR'
03949  2B3F  8D                 .BYTE $8D       ;CR $0D WITH HIGH BIT SET
03950  2B40              ;
03951  2B40  0D          AA2340 .BYTE $0D
03952  2B41  43 42              .BYTE 'CBM RESIDENT ASSEMBLER V080282'
03953  2B5F  0D                 .BYTE $0D
03954  2B60  28 43              .BYTE '(C) 1982 BY COMMODORE BUSINESS MACH
INES'
03955  2B87  0D                 .BYTE $0D
03956  2B88  0D                 .BYTE $0D
03957  2B89  4F 42              .BYTE 'OBJECT FILE (CR OR D:NAME):'
03958  2BA4  A0                 .BYTE $A0       ;SPACE $20 WITH BIT HIGH B
IT SET
03959  2BA5              ;
03960  2BA5  0D          AA23A5 .BYTE $0D
03961  2BA6  48 41              .BYTE 'HARD COPY (CR/Y OR N)?'
03962  2BBC  A0                 .BYTE $A0       ;SPACE $20 WITH BIT HIGH B
IT SET






ASSEMBLERP64......PAGE 0074

LINE# LOC   CODE        LINE


03963  2BBD              ;
03964  2BBD  0D          AA23BD .BYTE $0D
03965  2BBE  43 52              .BYTE 'CROSS REFERENCE (CR/NO OR Y)? '
03966  2BDC  A0                 .BYTE $A0       ;SPACE $20 WITH BIT HIGH B
IT SET
03967  2BDD              ;********************************
03968  2BDD              ; CROSS REFERENCE FILE NAMES
03969  2BDD              ;********************************
03970  2BDD  30 3A       AA23DD .BYTE '0:XRLL0000,S,W'
03971  2BEB  30 3A       AA23EB .BYTE '0:XRFF0000,S,W'
03972  2BF9              ;********************************
03973  2BF9              ; ERROR MESSAGES
03974  2BF9              ;
03975  2BF9              ; FIXED LENGHT 21 $33 CHARS
03976  2BF9              ;********************************
03977  2BF9  55 4E       AA23F9 .BYTE 'UNDEFINED SYMBOL*****'
03978  2C0E  44 55       AA240E .BYTE 'DUPLICATE SYMBOL*****'
03979  2C23  49 4D       AA2423 .BYTE 'IMPROPER OPCODE******'
03980  2C38  49 4E       AA2438 .BYTE 'INVALID ADDRESS******'
03981  2C4D  2E 41       AA244D .BYTE '.A MODE NOT ALLOWED**'
03982  2C62  52 41       AA2462 .BYTE 'RAN OFF END OF CARD**'
03983  2C77  4C 41       AA2477 .BYTE 'LABEL START NEEDS A-Z'
03984  2C8C  4C 41       AA248C .BYTE 'LABEL TOO LONG*******'
03985  2CA1  4E 4F       AA24A1 .BYTE 'NON-ALPHANUMERIC*****'
03986  2CB6  46 4F       AA24B6 .BYTE 'FORWARD REFERENCE****'
03987  2CCB  49 4E       AA24CB .BYTE 'INDEX MUST BE X OR Y*'
03988  2CE0  43 41       AA24E0 .BYTE 'CAN''T EVAL EXPRESSION'
03989  2CF5  55 4E       AA24F5 .BYTE 'UNDEFINED DIRECTIVE**'
03990  2D0A  42 52       AA250A .BYTE 'BRANCH OUT OF RANGE**'
03991  2D1F  49 4C       AA251F .BYTE 'ILLEGAL OPERAND TYPE*'
03992  2D34  49 4E       AA2534 .BYTE 'INDIRECT OUT OF BOUND'
03993  2D49  41 2C       AA2549 .BYTE 'A,X,Y,S,P RESERVED***'
03994  2D5E  50 43       AA255E .BYTE 'PC NEGATIVE--RESET 0*'
03995  2D73  4D 41       AA2573 .BYTE 'MACRO TABLE FULL*****'
03996  2D88  4D 41       AA2588 .BYTE 'MACRO STACK FULL*****'
03997  2D9D  4D 41       AA259D .BYTE 'MACRO STACK EMPTY****'
03998  2DB2  4D 41       AA25B2 .BYTE 'MACRO LABEL ABSENT***'
03999  2DC7  2E 4D       AA25C7 .BYTE '.MAC WITHIN .MAC*****'
04000  2DDC  2E 4D       AA25DC .BYTE '.MND UNMATCHED*******'
04001  2DF1  4D 41       AA25F1 .BYTE 'MACRO NEST TOO DEEP**'
04002  2E06  54 4F       AA2606 .BYTE 'TOO MANY (>9) PARAMS*'
04003  2E1B              ;********************************
04004  2E1B              ; TABLE OF POINTERS TO ERROR MESSAGES
04005  2E1B              ;********************************
04006  2E1B              ; UNDEFINED SYMBOL 
04007  2E1B  F9          XX261B .BYTE <AA23F9   ;$F9
04008  2E1C  2B          XX261C .BYTE >AA23F9   ;$23 ;'#'
04009  2E1D              ; DUPLICATE SYMBOL
04010  2E1D  0E                 .BYTE <AA240E   ;$0E
04011  2E1E  2C                 .BYTE >AA240E   ;$24 ;'$'
04012  2E1F              ; IMPROPER OPCODE
04013  2E1F  23                 .BYTE <AA2423   ;$23 ;'#'
04014  2E20  2C                 .BYTE >AA2423   ;$24 ;'$'
04015  2E21              ; INVALID ADDRESS
04016  2E21  38                 .BYTE <AA2438   ;$38 ;'8'
04017  2E22  2C                 .BYTE >AA2438   ;$24 ;'$'






ASSEMBLERP64......PAGE 0075

LINE# LOC   CODE        LINE


04018  2E23              ; .A MODE NOT ALLOWED
04019  2E23  4D                 .BYTE <AA244D   ;$4D ;'M'
04020  2E24  2C                 .BYTE >AA244D   ;$24 ;'$'
04021  2E25              ; *EMPTY*
04022  2E25  00                 .BYTE $00
04023  2E26  00                 .BYTE $00
04024  2E27              ; RAN OFF END OF CARD
04025  2E27  62                 .BYTE <AA2462   ;$62
04026  2E28  2C                 .BYTE >AA2462   ;$24 ;'$'
04027  2E29              ; LABEL START NEEDS A-Z
04028  2E29  77                 .BYTE <AA2477   ;$77
04029  2E2A  2C                 .BYTE >AA2477   ;$24 ;'$'
04030  2E2B              ; LABEL TOO LONG
04031  2E2B  8C                 .BYTE <AA248C   ;$8C
04032  2E2C  2C                 .BYTE >AA248C   ;$24 ;'$'
04033  2E2D              ; NON-ALPHANUMERIC
04034  2E2D  A1                 .BYTE <AA24A1   ;$A1
04035  2E2E  2C                 .BYTE >AA24A1   ;$24 ;'$'
04036  2E2F              ; FORWARD REFERENCE
04037  2E2F  B6                 .BYTE <AA24B6   ;$B6
04038  2E30  2C                 .BYTE >AA24B6   ;$24 ;'$'
04039  2E31              ; INDEX MUST BE X OR Y
04040  2E31  CB                 .BYTE <AA24CB   ;$CB
04041  2E32  2C                 .BYTE >AA24CB   ;$24 ;'$'
04042  2E33              ; CAN''T EVAL EXPRESSION
04043  2E33  E0                 .BYTE <AA24E0   ;$E0
04044  2E34  2C                 .BYTE >AA24E0   ;$24 ;'$'
04045  2E35              ; UNDEFINED DIRECTIVE
04046  2E35  F5                 .BYTE <AA24F5   ;$F5
04047  2E36  2C                 .BYTE >AA24F5   ;$24 ;'$'
04048  2E37              ; *EMPTY*
04049  2E37  00                 .BYTE $00
04050  2E38  00                 .BYTE $00
04051  2E39              ; *EMPTY*
04052  2E39  00                 .BYTE $00
04053  2E3A  00                 .BYTE $00
04054  2E3B              ; BRANCH OUT OF RANGE
04055  2E3B  0A                 .BYTE <AA250A   ;$0A
04056  2E3C  2D                 .BYTE >AA250A   ;$25 ;'%'
04057  2E3D              ; ILLEGAL OPERAND TYPE
04058  2E3D  1F                 .BYTE <AA251F   ;$1F
04059  2E3E  2D                 .BYTE >AA251F   ;$25 ;'%'
04060  2E3F              ; INDIRECT OUT OF BOUND
04061  2E3F  34                 .BYTE <AA2534   ;$34 ;'4'
04062  2E40  2D                 .BYTE >AA2534   ;$25 ;'%'
04063  2E41              ; A,X,Y,S,P RESERVED
04064  2E41  49                 .BYTE <AA2549   ;$49 ;'I'
04065  2E42  2D                 .BYTE >AA2549   ;$25 ;'%'
04066  2E43              ; PC NEGATIVE--RESET 0
04067  2E43  5E                 .BYTE <AA255E   ;$5E ;'^'
04068  2E44  2D                 .BYTE >AA255E   ;$25 ;'%'
04069  2E45              ; MACRO TABLE FULL
04070  2E45  73                 .BYTE <AA2573   ;$73
04071  2E46  2D                 .BYTE >AA2573   ;$25 ;'%'
04072  2E47              ; MACRO STACK FULL






ASSEMBLERP64......PAGE 0076

LINE# LOC   CODE        LINE


04073  2E47  88                 .BYTE <AA2588   ;$88
04074  2E48  2D                 .BYTE >AA2588   ;$25 ;'%'
04075  2E49              ; MACRO STACK EMPTY
04076  2E49  9D                 .BYTE <AA259D   ;$9D
04077  2E4A  2D                 .BYTE >AA259D   ;$25 ;'%'
04078  2E4B              ; MACRO LABEL ABSENT
04079  2E4B  B2                 .BYTE <AA25B2   ;$B2
04080  2E4C  2D                 .BYTE >AA25B2   ;$25 ;'%'
04081  2E4D              ; .MAC WITHIN .MAC
04082  2E4D  C7                 .BYTE <AA25C7   ;$C7
04083  2E4E  2D                 .BYTE >AA25C7   ;$25 ;'%'
04084  2E4F              ; .MND UNMATCHED
04085  2E4F  DC                 .BYTE <AA25DC   ;$DC
04086  2E50  2D                 .BYTE >AA25DC   ;$25 ;'%'
04087  2E51              ; MACRO NEST TOO DEEP
04088  2E51  F1                 .BYTE <AA25F1   ;$F1
04089  2E52  2D                 .BYTE >AA25F1   ;$25 ;'%'
04090  2E53              ; TOO MANY (>9) PARAMS
04091  2E53  06                 .BYTE <AA2606   ;$06
04092  2E54  2E                 .BYTE >AA2606   ;$26 ;'&'
04093  2E55              ;********************************
04094  2E55              ;
04095  2E55              ;********************************
04096  2E55  01          XX2655 .BYTE $01
04097  2E56  0A                 .BYTE $0A
04098  2E57  64                 .BYTE $64
04099  2E58  E8                 .BYTE $E8
04100  2E59  10                 .BYTE $10
04101  2E5A              ;********************************
04102  2E5A              ;
04103  2E5A              ;********************************
04104  2E5A  00          XX265A .BYTE $00
04105  2E5B  00                 .BYTE $00
04106  2E5C  00                 .BYTE $00
04107  2E5D  03                 .BYTE $03
04108  2E5E  27                 .BYTE $27       ;'''
04109  2E5F              ;********************************
04110  2E5F              .END
04111  2E5F              ;********************************
04112  2E5F              ;.END
04113  2E5F              ;*=$265F
04114  2E5F              ;********************************
04115  2E5F  84 04       XX265F STY $04
04116  2E61  86 05              STX $05
04117  2E63  AD 7F 10    XX2663 LDA XX087F
04118  2E66  29 10              AND #$10
04119  2E68  F0 03              BEQ XX266D
04120  2E6A  4C 11 2F           JMP XX2711
04121  2E6D              ;********************************
04122  2E6D  AD 7F 10    XX266D LDA XX087F
04123  2E70  29 20              AND #$20        ;' '
04124  2E72  D0 47              BNE XX26BB
04125  2E74                                     ;BIT XX087F
04126  2E74  2C          BB2674 .BYTE $2C
04127  2E75  7F          BB2675 .BYTE <XX087F   ;$7F ; RRA #$08






ASSEMBLERP64......PAGE 0077

LINE# LOC   CODE        LINE


04128  2E76  10                 .BYTE >XX087F   ;$08
04129  2E77              ;
04130  2E77  70 33              BVS XX26AC
04131  2E79  A2 02              LDX #$02
04132  2E7B  EC 39 10           CPX XX0839
04133  2E7E  F0 0B              BEQ XX268B
04134  2E80  20 CC FF           JSR CLRCHN
04135  2E83  A2 02              LDX #$02
04136  2E85  8E 39 10    XX2685 STX XX0839
04137  2E88  20 C6 FF           JSR CHKIN
04138  2E8B  20 CF FF    XX268B JSR CHRIN
04139  2E8E  A6 90              LDX $90
04140  2E90  F0 15              BEQ XX26A7
04141  2E92  A8                 TAY 
04142  2E93  8A                 TXA 
04143  2E94  29 40              AND #$40        ;'@'
04144  2E96  D0 09              BNE XX26A1
04145  2E98  20 CC FF           JSR CLRCHN
04146  2E9B  20 FE 2F           JSR XX27FE
04147  2E9E  4C AD 2F           JMP XX27AD
04148  2EA1              ;********************************
04149  2EA1  A9 00       XX26A1 LDA #$00
04150  2EA3  8D 4B 10           STA XX084B
04151  2EA6  98                 TYA 
04152  2EA7  A4 04       XX26A7 LDY $04
04153  2EA9  A6 05              LDX $05
04154  2EAB  60                 RTS 
04155  2EAC              ;********************************
04156  2EAC  A2 03       XX26AC LDX #$03
04157  2EAE  EC 39 10           CPX XX0839
04158  2EB1  F0 D8              BEQ XX268B
04159  2EB3  20 CC FF           JSR CLRCHN
04160  2EB6  A2 03              LDX #$03
04161  2EB8  4C 85 2E           JMP XX2685
04162  2EBB              ;********************************
04163  2EBB  20 34 2F    XX26BB JSR XX2734
04164  2EBE  D0 06              BNE XX26C6
04165  2EC0  20 40 35           JSR XX2D40
04166  2EC3  4C 63 2E           JMP XX2663
04167  2EC6              ;********************************
04168  2EC6  C9 3F       XX26C6 CMP #$3F        ;'?'
04169  2EC8  D0 DD       XX26C8 BNE XX26A7
04170  2ECA  20 34 2F           JSR XX2734
04171  2ECD  38                 SEC 
04172  2ECE  E9 30              SBC #$30        ;'0'
04173  2ED0  20 CE 34           JSR XX2CCE
04174  2ED3  A0 00              LDY #$00
04175  2ED5  B1 10              LDA ($10),Y
04176  2ED7  8D 8D 11           STA XX098D
04177  2EDA  C8                 INY 
04178  2EDB  B1 10              LDA ($10),Y
04179  2EDD  8D 8E 11           STA XX098E
04180  2EE0  0D 8D 11           ORA XX098D
04181  2EE3  D0 24              BNE XX2709
04182  2EE5  A5 10              LDA $10






ASSEMBLERP64......PAGE 0078

LINE# LOC   CODE        LINE


04183  2EE7  8D 7A 11           STA XX097A
04184  2EEA  A5 11              LDA $11
04185  2EEC  8D 7B 11           STA XX097B
04186  2EEF  20 4B 2F           JSR XX274B
04187  2EF2  AD 7A 11           LDA XX097A
04188  2EF5  85 10              STA $10
04189  2EF7  AD 7B 11           LDA XX097B
04190  2EFA  85 11              STA $11
04191  2EFC  A0 00              LDY #$00
04192  2EFE  AD 8D 11           LDA XX098D
04193  2F01  91 10              STA ($10),Y
04194  2F03  C8                 INY 
04195  2F04  AD 8E 11           LDA XX098E
04196  2F07  91 10              STA ($10),Y
04197  2F09  AD 7F 10    XX2709 LDA XX087F
04198  2F0C  09 10              ORA #$10
04199  2F0E  8D 7F 10           STA XX087F
04200  2F11  AD 8D 11    XX2711 LDA XX098D
04201  2F14  85 10              STA $10
04202  2F16  AD 8E 11           LDA XX098E
04203  2F19  85 11              STA $11
04204  2F1B  EE 8D 11           INC XX098D
04205  2F1E  D0 03              BNE XX2723
04206  2F20  EE 8E 11           INC XX098E
04207  2F23  A0 00       XX2723 LDY #$00
04208  2F25  B1 10              LDA ($10),Y
04209  2F27  D0 9F              BNE XX26C8
04210  2F29  AD 7F 10           LDA XX087F
04211  2F2C  29 EF              AND #$EF
04212  2F2E  8D 7F 10           STA XX087F
04213  2F31  4C 63 2E           JMP XX2663
04214  2F34              ;********************************
04215  2F34  AD 87 11    XX2734 LDA XX0987
04216  2F37  85 10              STA $10
04217  2F39  AD 88 11           LDA XX0988
04218  2F3C  85 11              STA $11
04219  2F3E  EE 87 11           INC XX0987
04220  2F41  D0 03              BNE XX2746
04221  2F43  EE 88 11           INC XX0988
04222  2F46  A0 00       XX2746 LDY #$00
04223  2F48  B1 10              LDA ($10),Y
04224  2F4A  60                 RTS 
04225  2F4B              ;********************************
04226  2F4B  A2 03       XX274B LDX #$03
04227  2F4D  FE 89 11    XX274D INC XX0989,X
04228  2F50  BD 89 11           LDA XX0989,X
04229  2F53  C9 3A              CMP #$3A        ;':'
04230  2F55  D0 08              BNE XX275F
04231  2F57  A9 30              LDA #$30        ;'0'
04232  2F59  9D 89 11           STA XX0989,X
04233  2F5C  CA                 DEX 
04234  2F5D  D0 EE              BNE XX274D
04235  2F5F  AD 78 11    XX275F LDA XX0978
04236  2F62  8D 8D 11           STA XX098D
04237  2F65  AD 79 11           LDA XX0979






ASSEMBLERP64......PAGE 0079

LINE# LOC   CODE        LINE


04238  2F68  8D 8E 11           STA XX098E
04239  2F6B  A0 00              LDY #$00
04240  2F6D  B9 89 11    XX276D LDA XX0989,Y
04241  2F70  20 F1 31           JSR XX29F1
04242  2F73  C8                 INY 
04243  2F74  C0 04              CPY #$04
04244  2F76  90 F5              BCC XX276D
04245  2F78  A9 00              LDA #$00
04246  2F7A  20 F1 31           JSR XX29F1
04247  2F7D  60                 RTS 
04248  2F7E              ;********************************
04249  2F7E  A9 0D       XX277E LDA #$0D
04250  2F80  86 05       XX2780 STX $05
04251  2F82  84 04              STY $04
04252  2F84  48                 PHA 
04253  2F85                                     ;BIT XX0873
04254  2F85  2C          BB2785 .BYTE $2C
04255  2F86  73          BB2786 .BYTE <XX0873   ;$73 ; RRA $08
04256  2F87  10                 .BYTE >XX0873   ;$08
04257  2F88              ;
04258  2F88  10 1C              BPL XX27A6
04259  2F8A  AD 39 10           LDA XX0839
04260  2F8D  C9 04              CMP #$04
04261  2F8F  F0 0B              BEQ XX279C
04262  2F91  20 CC FF           JSR CLRCHN
04263  2F94  A2 04              LDX #$04
04264  2F96  8E 39 10           STX XX0839
04265  2F99  20 C9 FF           JSR CHKOUT
04266  2F9C  68          XX279C PLA 
04267  2F9D  48                 PHA 
04268  2F9E  20 D2 FF           JSR CHROUT
04269  2FA1  AE 72 10           LDX XX0872
04270  2FA4  F0 03              BEQ XX27A9
04271  2FA6              ; MAIN CHROUT ENTRY POINT
04272  2FA6  20 49 DC    XX27A6 JSR CHROUE; $E716
04273  2FA9  68          XX27A9 PLA 
04274  2FAA  4C A7 2E           JMP XX26A7
04275  2FAD              ;********************************
04276  2FAD  20 CC FF    XX27AD JSR CLRCHN
04277  2FB0  A9 01              LDA #$01
04278  2FB2  20 C3 FF           JSR CLOSE
04279  2FB5  A9 04              LDA #$04
04280  2FB7  20 C3 FF           JSR CLOSE
04281  2FBA  A9 05              LDA #$05
04282  2FBC  20 C3 FF           JSR CLOSE
04283  2FBF  AD 74 11           LDA XX0974
04284  2FC2  D0 08              BNE XX27CC
04285  2FC4  20 91 31           JSR XX2991
04286  2FC7  A9 06              LDA #$06
04287  2FC9  20 C3 FF           JSR CLOSE
04288  2FCC  A9 07       XX27CC LDA #$07
04289  2FCE  20 C3 FF           JSR CLOSE
04290  2FD1  20 CC FF           JSR CLRCHN
04291  2FD4  4C 71 30           JMP XX2871
04292  2FD7              ;********************************






ASSEMBLERP64......PAGE 0080

LINE# LOC   CODE        LINE


04293  2FD7  20 E1 FF    XX27D7 JSR STOP
04294  2FDA  F0 01              BEQ XX27DD
04295  2FDC  60                 RTS 
04296  2FDD              ;********************************
04297  2FDD  20 6D 13    XX27DD JSR XX0B6D
04298  2FE0  78                 SEI 
04299  2FE1  20 CC FF           JSR CLRCHN
04300  2FE4  A9 00              LDA #$00
04301  2FE6  8D 39 10           STA XX0839
04302  2FE9  85 C6              STA $C6
04303  2FEB  58                 CLI 
04304  2FEC  20 E4 FF    XX27EC JSR GETIN
04305  2FEF  09 00              ORA #$00
04306  2FF1  F0 F9              BEQ XX27EC
04307  2FF3  C9 42              CMP #$42        ;'B'
04308  2FF5  F0 04              BEQ XX27FB
04309  2FF7  20 5F 13           JSR XX0B5F
04310  2FFA  60                 RTS 
04311  2FFB              ;********************************
04312  2FFB  4C AD 2F    XX27FB JMP XX27AD
04313  2FFE              ;********************************
04314  2FFE              ; READ DISK ERROR STATUS
04315  2FFE              ;********************************
04316  2FFE  20 CC FF    XX27FE JSR CLRCHN
04317  3001  A2 07              LDX #$07
04318  3003  8E 39 10           STX XX0839
04319  3006  20 C6 FF           JSR CHKIN
04320  3009  20 CF FF           JSR CHRIN
04321  300C  85 12              STA $12
04322  300E  20 CF FF           JSR CHRIN
04323  3011  85 13              STA $13
04324  3013  C9 30              CMP #$30        ;'0'
04325  3015  D0 0E              BNE XX2825
04326  3017  A5 12              LDA $12
04327  3019  C9 30              CMP #$30        ;'0'
04328  301B  D0 08              BNE XX2825
04329  301D  20 CF FF    XX281D JSR CHRIN
04330  3020  C9 0D              CMP #$0D
04331  3022  D0 F9              BNE XX281D
04332  3024  60                 RTS 
04333  3025              ;********************************
04334  3025              ; READ DISK ERROR
04335  3025              ;********************************
04336  3025  A2 01       XX2825 LDX #$01
04337  3027  B5 12       XX2827 LDA $12,X
04338  3029  9D D0 10           STA XX08D0,X
04339  302C  CA                 DEX 
04340  302D  10 F8              BPL XX2827
04341  302F  A0 02              LDY #$02
04342  3031  84 04       XX2831 STY $04
04343  3033  20 CF FF           JSR CHRIN
04344  3036  C9 0D              CMP #$0D
04345  3038  F0 08              BEQ XX2842
04346  303A  A4 04              LDY $04
04347  303C  99 D0 10           STA XX08D0,Y






ASSEMBLERP64......PAGE 0081

LINE# LOC   CODE        LINE


04348  303F  C8                 INY 
04349  3040  D0 EF              BNE XX2831
04350  3042  A9 8D       XX2842 LDA #$8D
04351  3044  99 D0 10           STA XX08D0,Y
04352  3047  A9 10              LDA #>XX08D0    ;#$08
04353  3049  A0 D0              LDY #<XX08D0    ;#$D0
04354  304B  20 68 14           JSR XX0C68
04355  304E  A4 B7              LDY $B7
04356  3050  A9 8D              LDA #$8D
04357  3052  91 BB              STA ($BB),Y
04358  3054  A5 BC              LDA $BC
04359  3056  A4 BB              LDY $BB
04360  3058  20 68 14           JSR XX0C68
04361  305B  4C 71 30           JMP XX2871
04362  305E              ;********************************
04363  305E  86 05       XX285E STX $05
04364  3060  A6 05       XX2860 LDX $05
04365  3062  BD 8C 2A           LDA XX228C,X
04366  3065  08                 PHP 
04367  3066  29 7F              AND #$7F
04368  3068  20 80 2F           JSR XX2780
04369  306B  E6 05              INC $05
04370  306D  28                 PLP 
04371  306E  10 F0              BPL XX2860
04372  3070  60                 RTS 
04373  3071              ;********************************
04374  3071  20 6D 13    XX2871 JSR XX0B6D
04375  3074  20 85 30           JSR XX2885
04376  3077  4C 7E 86           JMP BASICW      ;$E386
04377  307A              ;********************************
04378  307A  A2 1E       XX287A LDX #$1E
04379  307C  B5 02       XX287C LDA $02,X
04380  307E  9D 1A 10           STA XX081A,X
04381  3081  CA                 DEX 
04382  3082  10 F8              BPL XX287C
04383  3084  60                 RTS 
04384  3085              ;********************************
04385  3085  A2 1E       XX2885 LDX #$1E
04386  3087  BD 1A 10    XX2887 LDA XX081A,X
04387  308A  95 02              STA $02,X
04388  308C  CA                 DEX 
04389  308D  10 F8              BPL XX2887
04390  308F  60                 RTS 
04391  3090              ;********************************
04392  3090  86 05       XX2890 STX $05
04393  3092  20 98 30           JSR XX2898
04394  3095  A6 05              LDX $05
04395  3097  60                 RTS 
04396  3098              ;********************************
04397  3098  48          XX2898 PHA 
04398  3099  99 18 11           STA XX0918,Y
04399  309C  AD 74 11           LDA XX0974
04400  309F  D0 05              BNE XX28A6
04401  30A1  AD 66 10           LDA XX0866
04402  30A4  D0 02              BNE XX28A8






ASSEMBLERP64......PAGE 0082

LINE# LOC   CODE        LINE


04403  30A6  68          XX28A6 PLA 
04404  30A7  60          XX28A7 RTS 
04405  30A8              ;********************************
04406  30A8  AD 74 10    XX28A8 LDA XX0874
04407  30AB  29 08              AND #$08
04408  30AD  F0 F7              BEQ XX28A6
04409  30AF  98                 TYA 
04410  30B0  18                 CLC 
04411  30B1  65 06              ADC $06
04412  30B3  4D 42 11           EOR XX0942
04413  30B6  D0 07              BNE XX28BF
04414  30B8  65 07              ADC $07
04415  30BA  CD 43 11           CMP XX0943
04416  30BD  F0 0B              BEQ XX28CA
04417  30BF  AD 46 11    XX28BF LDA XX0946
04418  30C2  F0 03              BEQ XX28C7
04419  30C4  20 28 31           JSR XX2928
04420  30C7  20 FA 30    XX28C7 JSR XX28FA
04421  30CA  AE 46 11    XX28CA LDX XX0946
04422  30CD  68                 PLA 
04423  30CE  9D 49 11           STA XX0949,X
04424  30D1  EE 46 11           INC XX0946
04425  30D4  18                 CLC 
04426  30D5  6D 40 11           ADC XX0940
04427  30D8  8D 40 11           STA XX0940
04428  30DB  90 03              BCC XX28E0
04429  30DD  EE 41 11           INC XX0941
04430  30E0  EE 42 11    XX28E0 INC XX0942
04431  30E3  D0 03              BNE XX28E8
04432  30E5  EE 43 11           INC XX0943
04433  30E8  E0 17       XX28E8 CPX #$17
04434  30EA  90 BB              BCC XX28A7
04435  30EC  20 28 31           JSR XX2928
04436  30EF  4C 04 31           JMP XX2904
04437  30F2              ;********************************
04438  30F2  A9 00       XX28F2 LDA #$00
04439  30F4  8D 44 11           STA XX0944
04440  30F7  8D 45 11           STA XX0945
04441  30FA  A5 06       XX28FA LDA $06
04442  30FC  8D 42 11           STA XX0942
04443  30FF  A5 07              LDA $07
04444  3101  8D 43 11           STA XX0943
04445  3104  A9 00       XX2904 LDA #$00
04446  3106  8D 46 11           STA XX0946
04447  3109  8D 41 11           STA XX0941
04448  310C  AD 42 11           LDA XX0942
04449  310F  8D 48 11           STA XX0948
04450  3112  8D 40 11           STA XX0940
04451  3115  AD 43 11           LDA XX0943
04452  3118  8D 47 11           STA XX0947
04453  311B  18                 CLC 
04454  311C  6D 40 11           ADC XX0940
04455  311F  8D 40 11           STA XX0940
04456  3122  90 03              BCC XX2927
04457  3124  EE 41 11           INC XX0941






ASSEMBLERP64......PAGE 0083

LINE# LOC   CODE        LINE


04458  3127  60          XX2927 RTS 
04459  3128              ;********************************
04460  3128  EE 44 11    XX2928 INC XX0944
04461  312B  D0 03              BNE XX2930
04462  312D  EE 45 11           INC XX0945
04463  3130  A2 00       XX2930 LDX #$00
04464  3132  86 05              STX $05
04465  3134  AD 46 11           LDA XX0946
04466  3137  18                 CLC 
04467  3138  69 03              ADC #$03
04468  313A  85 04              STA $04
04469  313C  A9 3B              LDA #$3B        ;';'
04470  313E  20 7A 31           JSR XX297A
04471  3141  A6 05       XX2941 LDX $05
04472  3143  BD 46 11           LDA XX0946,X
04473  3146  20 69 31           JSR XX2969
04474  3149  E6 05              INC $05
04475  314B  A4 04              LDY $04
04476  314D  C4 05              CPY $05
04477  314F  D0 F0              BNE XX2941
04478  3151  AD 46 11           LDA XX0946
04479  3154  18                 CLC 
04480  3155  6D 40 11           ADC XX0940
04481  3158  48                 PHA 
04482  3159  A9 00              LDA #$00
04483  315B  6D 41 11           ADC XX0941
04484  315E  20 69 31           JSR XX2969
04485  3161  68                 PLA 
04486  3162  20 69 31           JSR XX2969
04487  3165  A9 0D              LDA #$0D
04488  3167  D0 11              BNE XX297A
04489  3169  48          XX2969 PHA 
04490  316A  4A                 LSR A
04491  316B  4A                 LSR A
04492  316C  4A                 LSR A
04493  316D  4A                 LSR A
04494  316E  20 AB 31           JSR XX29AB
04495  3171  20 7A 31           JSR XX297A
04496  3174  68                 PLA 
04497  3175  29 0F              AND #$0F
04498  3177  20 AB 31           JSR XX29AB
04499  317A  48          XX297A PHA 
04500  317B  AD 39 10           LDA XX0839
04501  317E  C9 06              CMP #$06
04502  3180  F0 0B              BEQ XX298D
04503  3182  20 CC FF           JSR CLRCHN
04504  3185  A2 06              LDX #$06
04505  3187  8E 39 10           STX XX0839
04506  318A  20 C9 FF           JSR CHKOUT
04507  318D  68          XX298D PLA 
04508  318E  4C D2 FF           JMP CHROUT
04509  3191              ;********************************
04510  3191  AD 46 11    XX2991 LDA XX0946
04511  3194  F0 03              BEQ XX2999
04512  3196  20 28 31           JSR XX2928






ASSEMBLERP64......PAGE 0084

LINE# LOC   CODE        LINE


04513  3199  AD 44 11    XX2999 LDA XX0944
04514  319C  8D 42 11           STA XX0942
04515  319F  AD 45 11           LDA XX0945
04516  31A2  8D 43 11           STA XX0943
04517  31A5  20 04 31           JSR XX2904
04518  31A8  4C 28 31           JMP XX2928
04519  31AB              ;********************************
04520  31AB  18          XX29AB CLC 
04521  31AC  69 F6              ADC #$F6
04522  31AE  90 02              BCC XX29B2
04523  31B0  69 06              ADC #$06
04524  31B2  69 3A       XX29B2 ADC #$3A        ;':'
04525  31B4  60                 RTS 
04526  31B5              ;********************************
04527  31B5  8E 7F 11    XX29B5 STX XX097F
04528  31B8  AE 76 11           LDX XX0976
04529  31BB  86 10              STX $10
04530  31BD  AE 77 11           LDX XX0977
04531  31C0  86 11              STX $11
04532  31C2  A2 00              LDX #$00
04533  31C4  81 10              STA ($10,X)
04534  31C6  AE 7F 11           LDX XX097F
04535  31C9  60                 RTS 
04536  31CA              ;********************************
04537  31CA  48          XX29CA PHA 
04538  31CB  AD 66 10           LDA XX0866
04539  31CE  F0 02              BEQ XX29D2
04540  31D0  68                 PLA 
04541  31D1  60                 RTS 
04542  31D2              ;********************************
04543  31D2  68          XX29D2 PLA 
04544  31D3  20 B5 31           JSR XX29B5
04545  31D6  EE 76 11           INC XX0976
04546  31D9  D0 03              BNE XX29DE
04547  31DB  EE 77 11           INC XX0977
04548  31DE  38          XX29DE SEC 
04549  31DF  AD 76 11           LDA XX0976
04550  31E2  E9 FF              SBC #$FF
04551  31E4  AD 77 11           LDA XX0977
04552  31E7              ; SOME KIND OF OFFSET
04553  31E7  E9 9B              SBC #$9B
04554  31E9  B0 01              BCS XX29EC
04555  31EB  60                 RTS 
04556  31EC              ;********************************
04557  31EC  A9 22       XX29EC LDA #$22        ;'"'
04558  31EE  4C 34 34    XX29EE JMP XX2C34
04559  31F1              ;********************************
04560  31F1  48          XX29F1 PHA 
04561  31F2  AD 78 11           LDA XX0978
04562  31F5  85 10              STA $10
04563  31F7  AD 79 11           LDA XX0979
04564  31FA  85 11              STA $11
04565  31FC  68                 PLA 
04566  31FD  8E 7F 11           STX XX097F
04567  3200  A2 00              LDX #$00






ASSEMBLERP64......PAGE 0085

LINE# LOC   CODE        LINE


04568  3202  81 10              STA ($10,X)
04569  3204  AE 7F 11           LDX XX097F
04570  3207  EE 78 11           INC XX0978
04571  320A  AD 78 11           LDA XX0978
04572  320D  E9 FF              SBC #$FF
04573  320F  AD 79 11           LDA XX0979
04574  3212              ; SOME KIND OF OFFSET
04575  3212  E9 9F              SBC #$9F
04576  3214  B0 01              BCS XX2A17
04577  3216  60                 RTS 
04578  3217              ;********************************
04579  3217  A9 23       XX2A17 LDA #$23        ;'#'
04580  3219  4C 34 34           JMP XX2C34
04581  321C              ;********************************
04582  321C  AD 63 10    WW2A1C LDA XX0863
04583  321F  F0 05              BEQ XX2A26
04584  3221  A9 25              LDA #$25        ;'%'
04585  3223  4C 47 34           JMP XX2C47
04586  3226              ;********************************
04587  3226  AD 6A 10    XX2A26 LDA XX086A
04588  3229  8D 6E 10           STA XX086E
04589  322C  EE 6E 10           INC XX086E
04590  322F  20 AC 33           JSR XX2BAC
04591  3232  90 05              BCC XX2A39
04592  3234  A9 18       XX2A34 LDA #$18
04593  3236  4C 47 34           JMP XX2C47
04594  3239              ;********************************
04595  3239  AE 6E 10    XX2A39 LDX XX086E
04596  323C  20 75 1E           JSR XX1675
04597  323F  90 F3              BCC XX2A34
04598  3241  AD 6B 10           LDA XX086B
04599  3244  C9 03              CMP #$03
04600  3246  D0 0A              BNE XX2A52
04601  3248  20 33 23           JSR XX1B33
04602  324B  90 05              BCC XX2A52
04603  324D  A9 03              LDA #$03
04604  324F  4C 47 34           JMP XX2C47
04605  3252              ;********************************
04606  3252  20 CB 35    XX2A52 JSR XX2DCB
04607  3255  20 F8 21           JSR XX19F8
04608  3258  90 0A              BCC XX2A64
04609  325A  AD 66 10           LDA XX0866
04610  325D  D0 39              BNE XX2A98
04611  325F  A9 02              LDA #$02
04612  3261  4C 47 34           JMP XX2C47
04613  3264              ;********************************
04614  3264  A9 FF       XX2A64 LDA #$FF
04615  3266  8D 53 10           STA XX0853
04616  3269  8D 54 10           STA XX0854
04617  326C  20 CC 22           JSR XX1ACC
04618  326F  AD 76 11           LDA XX0976
04619  3272  8D 7A 11           STA XX097A
04620  3275  AD 77 11           LDA XX0977
04621  3278  8D 7B 11           STA XX097B
04622  327B  A0 00              LDY #$00






ASSEMBLERP64......PAGE 0086

LINE# LOC   CODE        LINE


04623  327D  B1 1A       XX2A7D LDA ($1A),Y
04624  327F  20 CA 31           JSR XX29CA
04625  3282  C8                 INY 
04626  3283  C0 06              CPY #$06
04627  3285  D0 F6              BNE XX2A7D
04628  3287  A0 14              LDY #$14
04629  3289  A9 00       XX2A89 LDA #$00
04630  328B  20 CA 31           JSR XX29CA
04631  328E  88                 DEY 
04632  328F  D0 F8              BNE XX2A89
04633  3291  F0 05              BEQ XX2A98
04634  3293  A9 0D       XX2A93 LDA #$0D
04635  3295  20 CA 31           JSR XX29CA
04636  3298  20 6B 34    XX2A98 JSR XX2C6B
04637  329B  20 EB 14           JSR XX0CEB
04638  329E  90 03              BCC XX2AA3
04639  32A0  4C 35 19           JMP XX1135
04640  32A3              ;********************************
04641  32A3  A2 FF       XX2AA3 LDX #$FF
04642  32A5  8E 6E 10           STX XX086E
04643  32A8  20 3F 33    XX2AA8 JSR XX2B3F
04644  32AB  90 E6              BCC XX2A93
04645  32AD  C9 2E              CMP #$2E        ;'.'
04646  32AF  F0 06              BEQ XX2AB7
04647  32B1  20 CA 31    XX2AB1 JSR XX29CA
04648  32B4  4C A8 32           JMP XX2AA8
04649  32B7              ;********************************
04650  32B7  AD 76 11    XX2AB7 LDA XX0976
04651  32BA  8D 7C 11           STA XX097C
04652  32BD  AD 77 11           LDA XX0977
04653  32C0  8D 7D 11           STA XX097D
04654  32C3  20 CA 31           JSR XX29CA
04655  32C6  A0 00              LDY #$00
04656  32C8  20 3F 33    XX2AC8 JSR XX2B3F
04657  32CB  90 C6              BCC XX2A93
04658  32CD  8D 7E 11           STA XX097E
04659  32D0  20 CA 31           JSR XX29CA
04660  32D3  AD 7E 11           LDA XX097E
04661  32D6  D9 66 28           CMP XX2066,Y
04662  32D9  F0 22              BEQ XX2AFD
04663  32DB  C0 01              CPY #$01
04664  32DD  D0 B4              BNE XX2A93
04665  32DF  C9 41              CMP #$41        ;'A'
04666  32E1  D0 C5              BNE XX2AA8
04667  32E3  20 3F 33           JSR XX2B3F
04668  32E6  90 AB              BCC XX2A93
04669  32E8  C9 43              CMP #$43        ;'C'
04670  32EA  D0 C5              BNE XX2AB1
04671  32EC  AD 7A 11           LDA XX097A
04672  32EF  8D 76 11           STA XX0976
04673  32F2  AD 7B 11           LDA XX097B
04674  32F5  8D 77 11           STA XX0977
04675  32F8  A9 26              LDA #$26        ;'&'
04676  32FA  4C 47 34           JMP XX2C47
04677  32FD              ;********************************






ASSEMBLERP64......PAGE 0087

LINE# LOC   CODE        LINE


04678  32FD  C8          XX2AFD INY 
04679  32FE  C0 03              CPY #$03
04680  3300  D0 C6              BNE XX2AC8
04681  3302  AD 66 10           LDA XX0866
04682  3305  D0 2D              BNE XX2B34
04683  3307  AD 7C 11           LDA XX097C
04684  330A  8D 76 11           STA XX0976
04685  330D  AD 7D 11           LDA XX097D
04686  3310  8D 77 11           STA XX0977
04687  3313  A9 0D              LDA #$0D
04688  3315  20 CA 31           JSR XX29CA
04689  3318  A9 00              LDA #$00
04690  331A  20 CA 31           JSR XX29CA
04691  331D  AD 7A 11           LDA XX097A
04692  3320  85 10              STA $10
04693  3322  AD 7B 11           LDA XX097B
04694  3325  85 11              STA $11
04695  3327  A0 06              LDY #$06
04696  3329  AD 76 11           LDA XX0976
04697  332C  91 10              STA ($10),Y
04698  332E  AD 77 11           LDA XX0977
04699  3331  C8                 INY 
04700  3332  91 10              STA ($10),Y
04701  3334  20 6B 34    XX2B34 JSR XX2C6B
04702  3337  4C CB 1D           JMP XX15CB
04703  333A              ;********************************
04704  333A  A9 27       WW2B3A LDA #$27        ;'''
04705  333C  4C 47 34           JMP XX2C47
04706  333F              ;********************************
04707  333F  AE 6E 10    XX2B3F LDX XX086E
04708  3342  E8                 INX 
04709  3343  8E 6E 10           STX XX086E
04710  3346  AD 77 10           LDA XX0877
04711  3349  CD 6E 10           CMP XX086E
04712  334C  B0 02              BCS XX2B50
04713  334E  18                 CLC 
04714  334F  60                 RTS 
04715  3350              ;********************************
04716  3350  BD 80 10    XX2B50 LDA XX0880,X
04717  3353  38                 SEC 
04718  3354  60                 RTS 
04719  3355              ;********************************
04720  3355  A9 00       XX2B55 LDA #$00
04721  3357  85 10              STA $10
04722  3359              ; SOME KIND OF OFFSET
04723  3359  A9 88              LDA #$88
04724  335B  85 11              STA $11
04725  335D  38          XX2B5D SEC 
04726  335E  A5 10              LDA $10
04727  3360  ED 76 11           SBC XX0976
04728  3363  A5 11              LDA $11
04729  3365  ED 77 11           SBC XX0977
04730  3368  90 02              BCC XX2B6C
04731  336A  18                 CLC 
04732  336B  60                 RTS 






ASSEMBLERP64......PAGE 0088

LINE# LOC   CODE        LINE


04733  336C              ;********************************
04734  336C  A0 05       XX2B6C LDY #$05
04735  336E  B1 10       XX2B6E LDA ($10),Y
04736  3370  D9 08 11           CMP XX0908,Y
04737  3373  D0 05              BNE XX2B7A
04738  3375  88                 DEY 
04739  3376  10 F6              BPL XX2B6E
04740  3378  38                 SEC 
04741  3379  60                 RTS 
04742  337A              ;********************************
04743  337A  A0 06       XX2B7A LDY #$06
04744  337C  B1 10              LDA ($10),Y
04745  337E  AA                 TAX 
04746  337F  C8                 INY 
04747  3380  B1 10              LDA ($10),Y
04748  3382  85 11              STA $11
04749  3384  86 10              STX $10
04750  3386  4C 5D 33           JMP XX2B5D
04751  3389              ;********************************
04752  3389  A5 10       XX2B89 LDA $10
04753  338B  8D 80 11           STA XX0980
04754  338E  A5 11              LDA $11
04755  3390  8D 81 11           STA XX0981
04756  3393  20 6B 34           JSR XX2C6B
04757  3396  20 EE 34           JSR XX2CEE
04758  3399  AD 80 11           LDA XX0980
04759  339C  85 10              STA $10
04760  339E  AD 81 11           LDA XX0981
04761  33A1  85 11              STA $11
04762  33A3  20 A9 35           JSR XX2DA9
04763  33A6  20 F9 33           JSR XX2BF9
04764  33A9  4C CB 1D           JMP XX15CB
04765  33AC              ;********************************
04766  33AC  20 D1 1D    XX2BAC JSR XX15D1
04767  33AF  B0 02              BCS XX2BB3
04768  33B1  38          XX2BB1 SEC 
04769  33B2  60                 RTS 
04770  33B3              ;********************************
04771  33B3  AE 6E 10    XX2BB3 LDX XX086E
04772  33B6  A0 00              LDY #$00
04773  33B8  BD 80 10           LDA XX0880,X
04774  33BB  C9 3B              CMP #$3B        ;';'
04775  33BD  F0 F2              BEQ XX2BB1
04776  33BF  20 75 1E    XX2BBF JSR XX1675
04777  33C2  B0 05              BCS XX2BC9
04778  33C4  20 82 1E           JSR XX1682
04779  33C7  90 0F              BCC XX2BD8
04780  33C9  99 08 11    XX2BC9 STA XX0908,Y
04781  33CC  E8                 INX 
04782  33CD  C8                 INY 
04783  33CE  BD 80 10           LDA XX0880,X
04784  33D1  EC 77 10           CPX XX0877
04785  33D4  F0 E9              BEQ XX2BBF
04786  33D6  90 E7              BCC XX2BBF
04787  33D8  C0 00       XX2BD8 CPY #$00






ASSEMBLERP64......PAGE 0089

LINE# LOC   CODE        LINE


04788  33DA  F0 D5              BEQ XX2BB1
04789  33DC  C0 07              CPY #$07
04790  33DE  90 05              BCC XX2BE5
04791  33E0  A9 09              LDA #$09
04792  33E2  4C 47 34           JMP XX2C47
04793  33E5              ;********************************
04794  33E5  A9 20       XX2BE5 LDA #$20        ;' '
04795  33E7  8C 6B 10           STY XX086B
04796  33EA  C0 06       XX2BEA CPY #$06
04797  33EC  B0 06              BCS XX2BF4
04798  33EE  99 08 11           STA XX0908,Y
04799  33F1  C8                 INY 
04800  33F2  D0 F6              BNE XX2BEA
04801  33F4  18          XX2BF4 CLC 
04802  33F5  8E 6A 10           STX XX086A
04803  33F8  60                 RTS 
04804  33F9              ;********************************
04805  33F9  A9 01       XX2BF9 LDA #$01
04806  33FB  20 CE 34           JSR XX2CCE
04807  33FE  A0 11              LDY #$11
04808  3400  A9 00              LDA #$00
04809  3402  91 10       XX2C02 STA ($10),Y
04810  3404  88                 DEY 
04811  3405  10 FB              BPL XX2C02
04812  3407  8D 82 11           STA XX0982
04813  340A  20 D1 1D           JSR XX15D1
04814  340D  90 21              BCC XX2C30
04815  340F  AD 78 11           LDA XX0978
04816  3412  8D 80 11           STA XX0980
04817  3415  AD 79 11           LDA XX0979
04818  3418  8D 81 11           STA XX0981
04819  341B  20 4F 34    XX2C1B JSR XX2C4F
04820  341E  90 10              BCC XX2C30
04821  3420  C9 2C              CMP #$2C        ;','
04822  3422  F0 06              BEQ XX2C2A
04823  3424  20 F1 31           JSR XX29F1
04824  3427  4C 1B 34           JMP XX2C1B
04825  342A              ;********************************
04826  342A  20 87 34    XX2C2A JSR XX2C87
04827  342D  4C 1B 34           JMP XX2C1B
04828  3430              ;********************************
04829  3430  20 87 34    XX2C30 JSR XX2C87
04830  3433  60                 RTS 
04831  3434              ;********************************
04832  3434  48          XX2C34 PHA 
04833  3435  AD 85 11           LDA XX0985
04834  3438  8D 78 11           STA XX0978
04835  343B  AD 86 11           LDA XX0986
04836  343E  8D 79 11           STA XX0979
04837  3441  A9 80              LDA #$80
04838  3443  8D 7F 10           STA XX087F
04839  3446  68                 PLA 
04840  3447  AE 6A 10    XX2C47 LDX XX086A
04841  344A  A0 00              LDY #$00
04842  344C  4C C8 1D           JMP XX15C8






ASSEMBLERP64......PAGE 0090

LINE# LOC   CODE        LINE


04843  344F              ;********************************
04844  344F  AE 6E 10    XX2C4F LDX XX086E
04845  3452  EC 77 10           CPX XX0877
04846  3455  F0 02              BEQ XX2C59
04847  3457  B0 10              BCS XX2C69
04848  3459  BD 80 10    XX2C59 LDA XX0880,X
04849  345C  C9 20              CMP #$20        ;' '
04850  345E  F0 09              BEQ XX2C69
04851  3460  C9 3B              CMP #$3B        ;';'
04852  3462  F0 05              BEQ XX2C69
04853  3464  EE 6E 10           INC XX086E
04854  3467  38                 SEC 
04855  3468  60                 RTS 
04856  3469              ;********************************
04857  3469  18          XX2C69 CLC 
04858  346A  60                 RTS 
04859  346B              ;********************************
04860  346B  48          XX2C6B PHA 
04861  346C  8A                 TXA 
04862  346D  48                 PHA 
04863  346E  98                 TYA 
04864  346F  48                 PHA 
04865  3470  AD 66 10           LDA XX0866
04866  3473  F0 0C              BEQ XX2C81
04867  3475  A9 00              LDA #$00
04868  3477  AA                 TAX 
04869  3478  A8                 TAY 
04870  3479  20 68 23           JSR XX1B68
04871  347C  A9 00              LDA #$00
04872  347E  8D 62 10           STA XX0862
04873  3481  68          XX2C81 PLA 
04874  3482  A8                 TAY 
04875  3483  68                 PLA 
04876  3484  AA                 TAX 
04877  3485  68                 PLA 
04878  3486  60                 RTS 
04879  3487              ;********************************
04880  3487  AD 78 11    XX2C87 LDA XX0978
04881  348A  CD 80 11           CMP XX0980
04882  348D  D0 08              BNE XX2C97
04883  348F  AD 79 11           LDA XX0979
04884  3492  CD 81 11           CMP XX0981
04885  3495  F0 33              BEQ XX2CCA
04886  3497  A9 00       XX2C97 LDA #$00
04887  3499  20 F1 31           JSR XX29F1
04888  349C  AD 82 11           LDA XX0982
04889  349F  C9 09              CMP #$09
04890  34A1  90 05              BCC XX2CA8
04891  34A3  A9 29              LDA #$29        ;')'
04892  34A5  4C 34 34           JMP XX2C34
04893  34A8              ;********************************
04894  34A8  AD 82 11    XX2CA8 LDA XX0982
04895  34AB  18                 CLC 
04896  34AC  69 01              ADC #$01
04897  34AE  20 CE 34           JSR XX2CCE






ASSEMBLERP64......PAGE 0091

LINE# LOC   CODE        LINE


04898  34B1  A0 00              LDY #$00
04899  34B3  AD 80 11           LDA XX0980
04900  34B6  91 10              STA ($10),Y
04901  34B8  C8                 INY 
04902  34B9  AD 81 11           LDA XX0981
04903  34BC  91 10              STA ($10),Y
04904  34BE  AD 78 11           LDA XX0978
04905  34C1  8D 80 11           STA XX0980
04906  34C4  AD 79 11           LDA XX0979
04907  34C7  8D 79 11           STA XX0979
04908  34CA  EE 82 11    XX2CCA INC XX0982
04909  34CD  60                 RTS 
04910  34CE              ;********************************
04911  34CE  38          XX2CCE SEC 
04912  34CF  E9 01              SBC #$01
04913  34D1  10 05              BPL XX2CD8
04914  34D3  A9 13       XX2CD3 LDA #$13
04915  34D5  4C 34 34           JMP XX2C34
04916  34D8              ;********************************
04917  34D8  C9 09       XX2CD8 CMP #$09
04918  34DA  B0 F7              BCS XX2CD3
04919  34DC  0A                 ASL A
04920  34DD  18                 CLC 
04921  34DE  69 08              ADC #$08
04922  34E0  18                 CLC 
04923  34E1  6D 83 11           ADC XX0983
04924  34E4  85 10              STA $10
04925  34E6  AD 84 11           LDA XX0984
04926  34E9  69 00              ADC #$00
04927  34EB  85 11              STA $11
04928  34ED  60                 RTS 
04929  34EE              ;********************************
04930  34EE              ;********************************
04931  34EE              ;.END
04932  34EE              ;*=$2CEE
04933  34EE              ;********************************
04934  34EE  EE 8F 11    XX2CEE INC XX098F
04935  34F1  AD 8F 11           LDA XX098F
04936  34F4  C9 09              CMP #$09
04937  34F6  90 05              BCC XX2CFD
04938  34F8  A9 28              LDA #$28        ;'('
04939  34FA  4C EE 31           JMP XX29EE
04940  34FD              ;********************************
04941  34FD  AD 78 11    XX2CFD LDA XX0978
04942  3500  8D 7A 11           STA XX097A
04943  3503  AD 79 11           LDA XX0979
04944  3506  8D 7B 11           STA XX097B
04945  3509  AD 85 11           LDA XX0985
04946  350C  20 F1 31           JSR XX29F1
04947  350F  AD 86 11           LDA XX0986
04948  3512  20 F1 31           JSR XX29F1
04949  3515  AD 83 11           LDA XX0983
04950  3518  20 F1 31           JSR XX29F1
04951  351B  AD 84 11           LDA XX0984
04952  351E  20 F1 31           JSR XX29F1






ASSEMBLERP64......PAGE 0092

LINE# LOC   CODE        LINE


04953  3521  AD 87 11           LDA XX0987
04954  3524  20 F1 31           JSR XX29F1
04955  3527  AD 88 11           LDA XX0988
04956  352A  20 F1 31           JSR XX29F1
04957  352D  AD 7F 10           LDA XX087F
04958  3530  20 F1 31           JSR XX29F1
04959  3533  AD 7A 11           LDA XX097A
04960  3536  8D 85 11           STA XX0985
04961  3539  AD 7B 11           LDA XX097B
04962  353C  8D 86 11           STA XX0986
04963  353F  60                 RTS 
04964  3540              ;********************************
04965  3540  CE 8F 11    XX2D40 DEC XX098F
04966  3543  10 05              BPL XX2D4A
04967  3545  A9 24              LDA #$24        ;'$'
04968  3547  4C EE 31           JMP XX29EE
04969  354A              ;********************************
04970  354A  AD 85 11    XX2D4A LDA XX0985
04971  354D  85 10              STA $10
04972  354F  8D 78 11           STA XX0978
04973  3552  AD 86 11           LDA XX0986
04974  3555  85 11              STA $11
04975  3557  8D 79 11           STA XX0979
04976  355A  A0 00              LDY #$00
04977  355C  B1 10              LDA ($10),Y
04978  355E  8D 85 11           STA XX0985
04979  3561  C8                 INY 
04980  3562  B1 10              LDA ($10),Y
04981  3564  8D 86 11           STA XX0986
04982  3567  C8                 INY 
04983  3568  B1 10              LDA ($10),Y
04984  356A  8D 83 11           STA XX0983
04985  356D  C8                 INY 
04986  356E  B1 10              LDA ($10),Y
04987  3570  8D 84 11           STA XX0984
04988  3573  C8                 INY 
04989  3574  B1 10              LDA ($10),Y
04990  3576  8D 87 11           STA XX0987
04991  3579  C8                 INY 
04992  357A  B1 10              LDA ($10),Y
04993  357C  8D 88 11           STA XX0988
04994  357F  C8                 INY 
04995  3580  B1 10              LDA ($10),Y
04996  3582  8D 7F 10           STA XX087F
04997  3585  38                 SEC 
04998  3586  AD 85 11           LDA XX0985
04999  3589  E9 00              SBC #$00
05000  358B  AD 86 11           LDA XX0986
05001  358E              ; SOME KIND OF OFFSET       
05002  358E  E9 88              SBC #$88
05003  3590  B0 05              BCS XX2D97
05004  3592  A9 24              LDA #$24        ;'$'
05005  3594  4C EE 31    XX2D94 JMP XX29EE
05006  3597              ;********************************
05007  3597  38          XX2D97 SEC 






ASSEMBLERP64......PAGE 0093

LINE# LOC   CODE        LINE


05008  3598  A9 FF              LDA #$FF
05009  359A  ED 85 11           SBC XX0985
05010  359D              ; SOME KIND OF OFFSET       
05011  359D  A9 9B              LDA #$9B
05012  359F  ED 86 11           SBC XX0986
05013  35A2  90 04              BCC XX2DA8
05014  35A4  A9 23              LDA #$23        ;'#'
05015  35A6  D0 EC              BNE XX2D94
05016  35A8  60          XX2DA8 RTS 
05017  35A9              ;********************************
05018  35A9  AD 81 11    XX2DA9 LDA XX0981
05019  35AC  8D 84 11           STA XX0984
05020  35AF  AA                 TAX 
05021  35B0  AD 80 11           LDA XX0980
05022  35B3  8D 83 11           STA XX0983
05023  35B6  18                 CLC 
05024  35B7  69 1A              ADC #$1A
05025  35B9  8D 87 11           STA XX0987
05026  35BC  8A                 TXA 
05027  35BD  69 00              ADC #$00
05028  35BF  8D 88 11           STA XX0988
05029  35C2  AD 7F 10           LDA XX087F
05030  35C5  09 20              ORA #$20        ;' '
05031  35C7  8D 7F 10           STA XX087F
05032  35CA  60                 RTS 
05033  35CB              ;********************************
05034  35CB  AD 09 11    XX2DCB LDA XX0909
05035  35CE  C9 20              CMP #$20        ;' '
05036  35D0  D0 1E              BNE XX2DF0
05037  35D2  AD 08 11           LDA XX0908
05038  35D5  C9 41              CMP #$41        ;'A'
05039  35D7  F0 10              BEQ XX2DE9
05040  35D9  C9 58              CMP #$58        ;'X'
05041  35DB  F0 0C              BEQ XX2DE9
05042  35DD  C9 59              CMP #$59        ;'Y'
05043  35DF  F0 08              BEQ XX2DE9
05044  35E1  C9 53              CMP #$53        ;'S'
05045  35E3  F0 04              BEQ XX2DE9
05046  35E5  C9 50              CMP #$50        ;'P'
05047  35E7  D0 07              BNE XX2DF0
05048  35E9  A9 20       XX2DE9 LDA #$20        ;' '
05049  35EB  A0 03              LDY #$03
05050  35ED  4C C8 1D           JMP XX15C8
05051  35F0              ;********************************
05052  35F0  60          XX2DF0 RTS 
05053  35F1              ;********************************
05054  35F1              ; SYMBOL TABLE
05055  35F1              ;
05056  35F1              ; 6 CHARACTER SYMBOL PADDED WITH SPACED
05057  35F1              ; ADDRESS IN HI LO FORMAT
05058  35F1              ;
05059  35F1              ; XXXXXX HI LO
05060  35F1              ;
05061  35F1              ; EXAMPLE :
05062  35F1              ;






ASSEMBLERP64......PAGE 0094

LINE# LOC   CODE        LINE


05063  35F1              ; 'BASIC',$20,$A0,$00
05064  35F1              ;
05065  35F1              ;********************************
05066  35F1              XX2DF1=*
05067  35F1              ;********************************
05068  35F1              .END


ERRORS = 00000


SYMBOL TABLE

SYMBOL VALUE
 AA2045   2845    AA21AE   29AE    AA2294   2A94    AA22B5   2AB5
 AA22CB   2ACB    AA22D4   2AD4    AA22DA   2ADA    AA22DB   2ADB
 AA22E2   2AE2    AA22F3   2AF3    AA2310   2B10    AA2323   2B23
 AA2334   2B34    AA2340   2B40    AA23A5   2BA5    AA23BD   2BBD
 AA23DD   2BDD    AA23EB   2BEB    AA23F9   2BF9    AA240E   2C0E
 AA2423   2C23    AA2438   2C38    AA244D   2C4D    AA2462   2C62
 AA2477   2C77    AA248C   2C8C    AA24A1   2CA1    AA24B6   2CB6
 AA24CB   2CCB    AA24E0   2CE0    AA24F5   2CF5    AA250A   2D0A
 AA251F   2D1F    AA2534   2D34    AA2549   2D49    AA255E   2D5E
 AA2573   2D73    AA2588   2D88    AA259D   2D9D    AA25B2   2DB2
 AA25C7   2DC7    AA25DC   2DDC    AA25F1   2DF1    AA2606   2E06
 BASIC    100D    BASICW   867E    BB0F49   1749    BB0F4A   174A
 BB0F4C   174C    BB0F4D   174D    BB10D4   18D4    BB10D5   18D5
 BB10D7   18D7    BB10D8   18D8    BB10DA   18DA    BB10DB   18DB
 BB10DD   18DD    BB10DE   18DE    BB10E0   18E0    BB10E1   18E1
 BB10E3   18E3    BB10E4   18E4    BB10E6   18E6    BB10E7   18E7
 BB10E9   18E9    BB10EA   18EA    BB10EC   18EC    BB10ED   18ED
 BB10EF   18EF    BB10F0   18F0    BB10F2   18F2    BB10F3   18F3
 BB1136   1936    BB1183   1983    BB1184   1984    BB11F3   19F3
 BB11F4   19F4    BB1220   1A20    BB1221   1A21    BB2674   2E74
 BB2675   2E75    BB2785   2F85    BB2786   2F86    BSTUB    0001
 CHKIN    FFC6    CHKOUT   FFC9    CHRIN    FFCF    CHROUE   DC49
 CHROUT   FFD2    CLOSE    FFC3    CLRCHN   FFCC    GETIN    FFE4
 OPEN     FFC0    SCROLY   FF06    SETLFS   FFBA    SETMSG   FF90
 SETNAM   FFBD    STOP     FFE1    WW0F47   1747    WW1111   1911
 WW1120   1920    WW121E   1A1E    WW2A1C   321C    WW2B3A   333A
 XX081A   101A    XX082D   102D    XX082E   102E    XX082F   102F
 XX0830   1030    XX0831   1031    XX0832   1032    XX0833   1033
 XX0838   1038    XX0839   1039    XX083A   103A    XX0840   1040
 XX0844   1044    XX084A   104A    XX084B   104B    XX084C   104C
 XX084D   104D    XX084E   104E    XX084F   104F    XX0850   1050
 XX0851   1051    XX0852   1052    XX0853   1053    XX0854   1054
 XX0855   1055    XX0856   1056    XX0857   1057    XX0858   1058
 XX0859   1059    XX085A   105A    XX085B   105B    XX085C   105C
 XX085D   105D    XX085E   105E    XX085F   105F    XX0860   1060
 XX0861   1061    XX0862   1062    XX0863   1063    XX0864   1064
 XX0865   1065    XX0866   1066    XX0867   1067    XX0868   1068
 XX0869   1069    XX086A   106A    XX086B   106B    XX086C   106C
 XX086D   106D    XX086E   106E    XX086F   106F    XX0870   1070
 XX0871   1071    XX0872   1072    XX0873   1073    XX0874   1074








SYMBOL TABLE

SYMBOL VALUE
 XX0875   1075    XX0876   1076    XX0877   1077    XX0878   1078
 XX0879   1079    XX087A   107A    XX087B   107B    XX087C   107C
 XX087D   107D    XX087E   107E    XX087F   107F    XX0880   1080
 XX0881   1081    XX08CE   10CE    XX08CF   10CF    XX08D0   10D0
 XX08E3   10E3    XX0902   1102    XX0903   1103    XX0904   1104
 XX0905   1105    XX0906   1106    XX0907   1107    XX0908   1108
 XX0909   1109    XX0917   1117    XX0918   1118    XX0919   1119
 XX091A   111A    XX0929   1129    XX093E   113E    XX093F   113F
 XX0940   1140    XX0941   1141    XX0942   1142    XX0943   1143
 XX0944   1144    XX0945   1145    XX0946   1146    XX0947   1147
 XX0948   1148    XX0949   1149    XX0960   1160    XX0961   1161
 XX0973   1173    XX0974   1174    XX0975   1175    XX0976   1176
 XX0977   1177    XX0978   1178    XX0979   1179    XX097A   117A
 XX097B   117B    XX097C   117C    XX097D   117D    XX097E   117E
 XX097F   117F    XX0980   1180    XX0981   1181    XX0982   1182
 XX0983   1183    XX0984   1184    XX0985   1185    XX0986   1186
 XX0987   1187    XX0988   1188    XX0989   1189    XX098D   118D
 XX098E   118E    XX098F   118F    XX0990   1190    XX0A0C   120C
 XX0A27   1227    XX0A40   1240    XX0A47   1247    XX0A5B   125B
 XX0A76   1276    XX0A9E   129E    XX0AAF   12AF    XX0ABA   12BA
 XX0ACC   12CC    XX0AD8   12D8    XX0ADF   12DF    XX0AF6   12F6
 XX0B22   1322    XX0B41   1341    XX0B5F   135F    XX0B6C   136C
 XX0B6D   136D    XX0B76   1376    XX0B81   1381    XX0BB4   13B4
 XX0BB6   13B6    XX0BC6   13C6    XX0BDA   13DA    XX0BF9   13F9
 XX0C23   1423    XX0C24   1424    XX0C25   1425    XX0C2C   142C
 XX0C5C   145C    XX0C68   1468    XX0C7E   147E    XX0C7F   147F
 XX0C86   1486    XX0C93   1493    XX0C97   1497    XX0CA5   14A5
 XX0CAF   14AF    XX0CE3   14E3    XX0CE4   14E4    XX0CE5   14E5
 XX0CE8   14E8    XX0CEB   14EB    XX0CF5   14F5    XX0D02   1502
 XX0D09   1509    XX0D0F   150F    XX0D21   1521    XX0D25   1525
 XX0D28   1528    XX0D36   1536    XX0D43   1543    XX0D4A   154A
 XX0D4B   154B    XX0D4C   154C    XX0D5A   155A    XX0D69   1569
 XX0D78   1578    XX0D7B   157B    XX0D7C   157C    XX0D7D   157D
 XX0D87   1587    XX0D8F   158F    XX0DBB   15BB    XX0DCE   15CE
 XX0DE0   15E0    XX0DE5   15E5    XX0DEF   15EF    XX0DF4   15F4
 XX0DFD   15FD    XX0E0D   160D    XX0E18   1618    XX0E1B   161B
 XX0E2B   162B    XX0E2E   162E    XX0E35   1635    XX0E45   1645
 XX0E54   1654    XX0E65   1665    XX0E6C   166C    XX0E8B   168B
 XX0E9F   169F    XX0EA5   16A5    XX0EC1   16C1    XX0ECB   16CB
 XX0EDA   16DA    XX0EDD   16DD    XX0EF6   16F6    XX0EFD   16FD
 XX0F08   1708    XX0F15   1715    XX0F17   1717    XX0F19   1719
 XX0F36   1736    XX0F41   1741    XX0F5D   175D    XX0F6D   176D
 XX0F70   1770    XX0F80   1780    XX0F85   1785    XX0F92   1792
 XX0F95   1795    XX0FB0   17B0    XX0FC8   17C8    XX0FE7   17E7
 XX0FF7   17F7    XX1003   1803    XX1008   1808    XX1009   1809
 XX100A   180A    XX100B   180B    XX101C   181C    XX1028   1828
 XX102B   182B    XX1032   1832    XX1042   1842    XX1053   1853
 XX1060   1860    XX1074   1874    XX107B   187B    XX1086   1886
 XX108A   188A    XX1096   1896    XX10A5   18A5    XX10AD   18AD
 XX10B5   18B5    XX10C5   18C5    XX1100   1900    XX110A   190A
 XX1119   1919    XX112C   192C    XX112E   192E    XX1135   1935
 XX1151   1951    XX115C   195C    XX1169   1969    XX1190   1990
 XX11A9   19A9    XX11B0   19B0    XX11C7   19C7    XX11D2   19D2
 XX11DC   19DC    XX1202   1A02    XX123E   1A3E    XX124D   1A4D
 XX1259   1A59    XX125F   1A5F    XX126D   1A6D    XX1274   1A74








SYMBOL TABLE

SYMBOL VALUE
 XX1277   1A77    XX127F   1A7F    XX1282   1A82    XX1285   1A85
 XX128F   1A8F    XX1297   1A97    XX129A   1A9A    XX12AC   1AAC
 XX12BC   1ABC    XX12CA   1ACA    XX12E0   1AE0    XX12EA   1AEA
 XX12FA   1AFA    XX130C   1B0C    XX1316   1B16    XX131F   1B1F
 XX1325   1B25    XX1336   1B36    XX1352   1B52    XX135C   1B5C
 XX1369   1B69    XX1374   1B74    XX1376   1B76    XX1381   1B81
 XX1396   1B96    XX139E   1B9E    XX13C2   1BC2    XX13DB   1BDB
 XX13E8   1BE8    XX13F3   1BF3    XX13FB   1BFB    XX1402   1C02
 XX140B   1C0B    XX1413   1C13    XX141B   1C1B    XX1422   1C22
 XX142A   1C2A    XX142C   1C2C    XX1434   1C34    XX143C   1C3C
 XX146D   1C6D    XX1470   1C70    XX1475   1C75    XX1483   1C83
 XX148A   1C8A    XX1497   1C97    XX14A3   1CA3    XX14AD   1CAD
 XX14C5   1CC5    XX14D1   1CD1    XX14DA   1CDA    XX14E0   1CE0
 XX14EF   1CEF    XX1503   1D03    XX1514   1D14    XX1523   1D23
 XX1532   1D32    XX1557   1D57    XX1575   1D75    XX157F   1D7F
 XX158B   1D8B    XX1594   1D94    XX159C   1D9C    XX15A1   1DA1
 XX15A7   1DA7    XX15AD   1DAD    XX15B0   1DB0    XX15B8   1DB8
 XX15C4   1DC4    XX15C8   1DC8    XX15CB   1DCB    XX15D1   1DD1
 XX15DB   1DDB    XX15E2   1DE2    XX15EE   1DEE    XX15F5   1DF5
 XX15FD   1DFD    XX1604   1E04    XX1613   1E13    XX1617   1E17
 XX161B   1E1B    XX161D   1E1D    XX1621   1E21    XX1623   1E23
 XX162E   1E2E    XX1635   1E35    XX1638   1E38    XX163F   1E3F
 XX1646   1E46    XX1651   1E51    XX165F   1E5F    XX1675   1E75
 XX1682   1E82    XX168F   1E8F    XX1691   1E91    XX1698   1E98
 XX169F   1E9F    XX16AA   1EAA    XX16AC   1EAC    XX16B5   1EB5
 XX16BC   1EBC    XX16D3   1ED3    XX16D6   1ED6    XX16E4   1EE4
 XX16EE   1EEE    XX1705   1F05    XX170C   1F0C    XX1714   1F14
 XX171E   1F1E    XX1727   1F27    XX1730   1F30    XX1738   1F38
 XX173F   1F3F    XX1747   1F47    XX1751   1F51    XX175D   1F5D
 XX1760   1F60    XX177C   1F7C    XX178E   1F8E    XX1796   1F96
 XX17A0   1FA0    XX17A5   1FA5    XX17AD   1FAD    XX17B7   1FB7
 XX17CC   1FCC    XX17D8   1FD8    XX17E8   1FE8    XX1826   2026
 XX1831   2031    XX1834   2034    XX183F   203F    XX187B   207B
 XX1886   2086    XX189B   209B    XX18A2   20A2    XX18AE   20AE
 XX18BC   20BC    XX18DD   20DD    XX18E5   20E5    XX18F4   20F4
 XX18F8   20F8    XX1918   2118    XX191B   211B    XX191E   211E
 XX1924   2124    XX1938   2138    XX1939   2139    XX1941   2141
 XX194E   214E    XX1955   2155    XX195A   215A    XX195C   215C
 XX196C   216C    XX1974   2174    XX197C   217C    XX198E   218E
 XX199E   219E    XX19B5   21B5    XX19D2   21D2    XX19EB   21EB
 XX19F6   21F6    XX19F8   21F8    XX1A20   2220    XX1A2E   222E
 XX1A47   2247    XX1A65   2265    XX1A6B   226B    XX1A76   2276
 XX1A77   2277    XX1AB4   22B4    XX1ACA   22CA    XX1ACC   22CC
 XX1AE6   22E6    XX1AF2   22F2    XX1AFC   22FC    XX1B04   2304
 XX1B09   2309    XX1B0B   230B    XX1B28   2328    XX1B29   2329
 XX1B33   2333    XX1B3D   233D    XX1B3F   233F    XX1B56   2356
 XX1B61   2361    XX1B68   2368    XX1B8D   238D    XX1B9A   239A
 XX1BA7   23A7    XX1BB1   23B1    XX1BC2   23C2    XX1BCA   23CA
 XX1BD4   23D4    XX1BE1   23E1    XX1BED   23ED    XX1BF1   23F1
 XX1BF7   23F7    XX1C15   2415    XX1C18   2418    XX1C20   2420
 XX1C35   2435    XX1C38   2438    XX1C3D   243D    XX1C47   2447
 XX1C4C   244C    XX1C74   2474    XX1C82   2482    XX1C8D   248D
 XX1CA8   24A8    XX1CA9   24A9    XX1CB1   24B1    XX1CC0   24C0
 XX1CC3   24C3    XX1CCD   24CD    XX1CD6   24D6    XX1CDC   24DC
 XX1CE8   24E8    XX1CF1   24F1    XX1D08   2508    XX1D0B   250B








SYMBOL TABLE

SYMBOL VALUE
 XX1D21   2521    XX1D28   2528    XX1D34   2534    XX1D36   2536
 XX1D5A   255A    XX1D65   2565    XX1D6D   256D    XX1D6E   256E
 XX1D82   2582    XX1DB6   25B6    XX1DC4   25C4    XX1DE2   25E2
 XX1DE3   25E3    XX1DF5   25F5    XX1E02   2602    XX1E15   2615
 XX1E1B   261B    XX1E3E   263E    XX1E41   2641    XX1E5F   265F
 XX1E62   2662    XX1E75   2675    XX1E78   2678    XX1E80   2680
 XX1E83   2683    XX1EA5   26A5    XX1EB4   26B4    XX1EC9   26C9
 XX1ED3   26D3    XX1EE2   26E2    XX1EF6   26F6    XX1F00   2700
 XX1F01   2701    XX1F08   2708    XX1F0B   270B    XX1F21   2721
 XX1F2B   272B    XX1F2C   272C    XX1F35   2735    XX1F38   2738
 XX1F3B   273B    XX1F3E   273E    XX1F43   2743    XX1F5A   275A
 XX1F71   2771    XX1F77   2777    XX1F88   2788    XX1F92   2792
 XX1FA1   27A1    XX1FAC   27AC    XX1FB4   27B4    XX1FB8   27B8
 XX1FC2   27C2    XX1FC8   27C8    XX1FC9   27C9    XX1FF9   27F9
 XX2004   2804    XX2009   2809    XX200E   280E    XX2011   2811
 XX2012   2812    XX2066   2866    XX213B   293B    XX2149   2949
 XX214A   294A    XX221C   2A1C    XX2254   2A54    XX228C   2A8C
 XX228F   2A8F    XX261B   2E1B    XX261C   2E1C    XX2655   2E55
 XX265A   2E5A    XX265F   2E5F    XX2663   2E63    XX266D   2E6D
 XX2685   2E85    XX268B   2E8B    XX26A1   2EA1    XX26A7   2EA7
 XX26AC   2EAC    XX26BB   2EBB    XX26C6   2EC6    XX26C8   2EC8
 XX2709   2F09    XX2711   2F11    XX2723   2F23    XX2734   2F34
 XX2746   2F46    XX274B   2F4B    XX274D   2F4D    XX275F   2F5F
 XX276D   2F6D    XX277E   2F7E    XX2780   2F80    XX279C   2F9C
 XX27A6   2FA6    XX27A9   2FA9    XX27AD   2FAD    XX27CC   2FCC
 XX27D7   2FD7    XX27DD   2FDD    XX27EC   2FEC    XX27FB   2FFB
 XX27FE   2FFE    XX281D   301D    XX2825   3025    XX2827   3027
 XX2831   3031    XX2842   3042    XX285E   305E    XX2860   3060
 XX2871   3071    XX287A   307A    XX287C   307C    XX2885   3085
 XX2887   3087    XX2890   3090    XX2898   3098    XX28A6   30A6
 XX28A7   30A7    XX28A8   30A8    XX28BF   30BF    XX28C7   30C7
 XX28CA   30CA    XX28E0   30E0    XX28E8   30E8    XX28F2   30F2
 XX28FA   30FA    XX2904   3104    XX2927   3127    XX2928   3128
 XX2930   3130    XX2941   3141    XX2969   3169    XX297A   317A
 XX298D   318D    XX2991   3191    XX2999   3199    XX29AB   31AB
 XX29B2   31B2    XX29B5   31B5    XX29CA   31CA    XX29D2   31D2
 XX29DE   31DE    XX29EC   31EC    XX29EE   31EE    XX29F1   31F1
 XX2A17   3217    XX2A26   3226    XX2A34   3234    XX2A39   3239
 XX2A52   3252    XX2A64   3264    XX2A7D   327D    XX2A89   3289
 XX2A93   3293    XX2A98   3298    XX2AA3   32A3    XX2AA8   32A8
 XX2AB1   32B1    XX2AB7   32B7    XX2AC8   32C8    XX2AFD   32FD
 XX2B34   3334    XX2B3F   333F    XX2B50   3350    XX2B55   3355
 XX2B5D   335D    XX2B6C   336C    XX2B6E   336E    XX2B7A   337A
 XX2B89   3389    XX2BAC   33AC    XX2BB1   33B1    XX2BB3   33B3
 XX2BBF   33BF    XX2BC9   33C9    XX2BD8   33D8    XX2BE5   33E5
 XX2BEA   33EA    XX2BF4   33F4    XX2BF9   33F9    XX2C02   3402
 XX2C1B   341B    XX2C2A   342A    XX2C30   3430    XX2C34   3434
 XX2C47   3447    XX2C4F   344F    XX2C59   3459    XX2C69   3469
 XX2C6B   346B    XX2C81   3481    XX2C87   3487    XX2C97   3497
 XX2CA8   34A8    XX2CCA   34CA    XX2CCE   34CE    XX2CD3   34D3
 XX2CD8   34D8    XX2CEE   34EE    XX2CFD   34FD    XX2D40   3540
 XX2D4A   354A    XX2D94   3594    XX2D97   3597    XX2DA8   35A8
 XX2DA9   35A9    XX2DCB   35CB    XX2DE9   35E9    XX2DF0   35F0
 XX2DF1   35F1    ZZ080F   100F    ZZ10D2   18D2    ZZ206C   286C
 ZZ2093   2893   

END OF ASSEMBLY
BASSP64.ASM......PAGE 0001

LINE# LOC   CODE        LINE































































ASSEMBLERP64......PAGE 0002

LINE# LOC   CODE        LINE


00003  0000              ;*********************************
00004  0000              *=$1001                ;START OF BASIC PLUS 4
00005  1001              ;*********************************
00006  1001              ; SET BSTUB TO ONE TO ALLOW FOR
00007  1001              ; INSERTION OF BASIC STUB CODE
00008  1001              ;*********************************
00009  1001              BSTUB  = 1
00010  1001              ;*********************************
00011  1001              ;
00012  1001              ;         ASSEBMLERP64
00013  1001              ;      ASSEMBLER.P64 V080282
00014  1001              ; CBM RESIDENT ASSEMBLER V080282
00015  1001              ;
00016  1001              ; (C) 1982 BY COMMODORE MACHINES
00017  1001              ;
00018  1001              ;  DOCUMENTED BY DENTON MARLOWE
00019  1001              ;********************************
00020  1001              ;
00021  1001              ; BASIC FORMAT PROGRAM
00022  1001              ;
00023  1001              ; 10 SYS(4111)
00024  1001              ;
00025  1001              ;*********************************
00027  1001              ;.IF  BSTUB == 1
00028  1001  0D 10              .WORD BASIC     ;LINE LINK POINTER
00029  1003  0A                 .BYTE $0A,$00   ;LINE NUMBER (10)
00029  1004  00 
00030  1005  9E                 .BYTE $9E       ;SYS COMMAND TOKEN
00031  1006  28 34              .BYTE '(4111)'  ;CALL TO $100F
00032  100C  00                 .BYTE $00       ;END OF LINE
00033  100D  00          BASIC  .BYTE $00,$00   ;END OF BASIC
00033  100E  00 
00035  100F              ;.FI
00036  100F              ;********************************
00037  100F              ;*=$100F        ;ASSEMBLER64 ORGIN
00038  100F              ;*********************************
00039  100F              ; MAIN BODY OF CODE
00040  100F              ;*********************************
00041  100F              .FIL   ASSP64.ASM
00042  100F              ;*********************************
00043  100F              ;
00044  100F              ;         ASSEBMLER64
00045  100F              ;      ASSEMBLER.C64 V080282
00046  100F              ; CBM RESIDENT ASSEMBLER V080282
00047  100F              ;
00048  100F              ; (C) 1982 BY COMMODORE MACHINES
00049  100F              ;
00050  100F              ;  DOCUMENTED BY DENTON MARLOWE
00051  100F              ;********************************
00052  100F              ; EXTERNAL ADDRESS EQUATES
00053  100F              ;********************************
00054  100F              BASICW = $867E
00055  100F              CHROUE = $DC49
00056  100F              SCROLY = $FF06
00057  100F              ;********************************






ASSEMBLERP64......PAGE 0003

LINE# LOC   CODE        LINE


00058  100F              ; EXTERNAL ADDRESS EQUATES
00059  100F              ;********************************
00060  100F              SETMSG=$FF90
00061  100F              SETLFS=$FFBA
00062  100F              SETNAM=$FFBD
00063  100F              OPEN=$FFC0
00064  100F              CLOSE=$FFC3
00065  100F              CHKIN=$FFC6
00066  100F              CHKOUT=$FFC9
00067  100F              CLRCHN=$FFCC
00068  100F              CHRIN=$FFCF
00069  100F              CHROUT=$FFD2
00070  100F              STOP=$FFE1
00071  100F              GETIN=$FFE4
00072  100F              ;********************************
00073  100F  20 7A 30    ZZ080F JSR XX287A
00074  1012  A9 80              LDA #$80
00075  1014  20 90 FF           JSR SETMSG
00076  1017  4C 90 11           JMP XX0990
00077  101A              ;********************************
00078  101A              ; VARIABLE STORAGE
00079  101A              ;********************************
00080  101A              .LIB   ASSVARTAB64.ASM
00081  101A              ;********************************
00082  101A              ;FILE: ASSVARTAB.ASM.SEQ
00083  101A              ;********************************
00084  101A              ;
00085  101A              ;********************************
00086  101A              ; VARIABLE STORAGE
00087  101A              ;********************************
00088  101A  AA          XX081A .BYTE $AA
00089  101B  AA                 .BYTE $AA
00090  101C  AA                 .BYTE $AA
00091  101D  AA                 .BYTE $AA
00092  101E  AA                 .BYTE $AA
00093  101F  AA                 .BYTE $AA
00094  1020  AA                 .BYTE $AA
00095  1021  AA                 .BYTE $AA
00096  1022  AA                 .BYTE $AA
00097  1023  AA                 .BYTE $AA
00098  1024  AA                 .BYTE $AA
00099  1025  AA                 .BYTE $AA
00100  1026  AA                 .BYTE $AA
00101  1027  AA                 .BYTE $AA
00102  1028  AA                 .BYTE $AA
00103  1029  AA                 .BYTE $AA
00104  102A  AA                 .BYTE $AA
00105  102B  AA                 .BYTE $AA
00106  102C  AA                 .BYTE $AA
00107  102D              ;********************************
00108  102D              ;
00109  102D              ;********************************
00110  102D  AA          XX082D .BYTE $AA
00111  102E  AA          XX082E .BYTE $AA
00112  102F  AA          XX082F .BYTE $AA






ASSEMBLERP64......PAGE 0004

LINE# LOC   CODE        LINE


00113  1030  AA          XX0830 .BYTE $AA
00114  1031  AA          XX0831 .BYTE $AA
00115  1032  AA          XX0832 .BYTE $AA
00116  1033              ;********************************
00117  1033              ;
00118  1033              ;********************************
00119  1033  AA          XX0833 .BYTE $AA
00120  1034  AA                 .BYTE $AA
00121  1035  AA                 .BYTE $AA
00122  1036  AA                 .BYTE $AA
00123  1037  AA                 .BYTE $AA
00124  1038  AA          XX0838 .BYTE $AA
00125  1039              ;
00126  1039  AA          XX0839 .BYTE $AA
00127  103A              ;********************************
00128  103A              ; SOURCE FILE NAME BUFFER,S,R
00129  103A              ;********************************
00130  103A  AA          XX083A .BYTE $AA
00131  103B  AA                 .BYTE $AA
00132  103C  AA                 .BYTE $AA
00133  103D  AA                 .BYTE $AA
00134  103E  AA                 .BYTE $AA
00135  103F  AA                 .BYTE $AA
00136  1040  AA          XX0840 .BYTE $AA
00137  1041  AA                 .BYTE $AA
00138  1042  AA                 .BYTE $AA
00139  1043  AA                 .BYTE $AA
00140  1044  AA          XX0844 .BYTE $AA
00141  1045  AA                 .BYTE $AA
00142  1046  AA                 .BYTE $AA
00143  1047  AA                 .BYTE $AA
00144  1048  AA                 .BYTE $AA
00145  1049  AA                 .BYTE $AA
00146  104A  AA          XX084A .BYTE $AA
00147  104B  AA          XX084B .BYTE $AA
00148  104C  AA          XX084C .BYTE $AA
00149  104D  AA          XX084D .BYTE $AA
00150  104E  AA          XX084E .BYTE $AA
00151  104F  AA          XX084F .BYTE $AA
00152  1050  AA          XX0850 .BYTE $AA
00153  1051  AA          XX0851 .BYTE $AA
00154  1052  AA          XX0852 .BYTE $AA
00155  1053  AA          XX0853 .BYTE $AA
00156  1054  AA          XX0854 .BYTE $AA
00157  1055  AA          XX0855 .BYTE $AA
00158  1056  AA          XX0856 .BYTE $AA
00159  1057  AA          XX0857 .BYTE $AA
00160  1058  AA          XX0858 .BYTE $AA
00161  1059  AA          XX0859 .BYTE $AA
00162  105A  AA          XX085A .BYTE $AA
00163  105B  AA          XX085B .BYTE $AA
00164  105C  AA          XX085C .BYTE $AA
00165  105D  AA          XX085D .BYTE $AA
00166  105E  AA          XX085E .BYTE $AA
00167  105F  AA          XX085F .BYTE $AA






ASSEMBLERP64......PAGE 0005

LINE# LOC   CODE        LINE


00168  1060  AA          XX0860 .BYTE $AA
00169  1061  AA          XX0861 .BYTE $AA
00170  1062  AA          XX0862 .BYTE $AA
00171  1063  AA          XX0863 .BYTE $AA
00172  1064  AA          XX0864 .BYTE $AA
00173  1065  AA          XX0865 .BYTE $AA
00174  1066  AA          XX0866 .BYTE $AA
00175  1067  AA          XX0867 .BYTE $AA
00176  1068  AA          XX0868 .BYTE $AA
00177  1069  AA          XX0869 .BYTE $AA
00178  106A  AA          XX086A .BYTE $AA
00179  106B  AA          XX086B .BYTE $AA
00180  106C  AA          XX086C .BYTE $AA
00181  106D  AA          XX086D .BYTE $AA
00182  106E  AA          XX086E .BYTE $AA
00183  106F  AA          XX086F .BYTE $AA
00184  1070  AA          XX0870 .BYTE $AA
00185  1071  AA          XX0871 .BYTE $AA
00186  1072  AA          XX0872 .BYTE $AA
00187  1073              ;********************************
00188  1073              ; HARD COPY FLAG
00189  1073              ; ONE USE TO TO TURN SCREEN OFF
00190  1073              ; DURING OUTPUT
00191  1073              ;********************************
00192  1073  AA          XX0873 .BYTE $AA
00193  1074              ;********************************
00194  1074              ;
00195  1074              ;********************************
00196  1074  AA          XX0874 .BYTE $AA
00197  1075  AA          XX0875 .BYTE $AA
00198  1076  AA          XX0876 .BYTE $AA
00199  1077  AA          XX0877 .BYTE $AA
00200  1078  AA          XX0878 .BYTE $AA
00201  1079  AA          XX0879 .BYTE $AA
00202  107A  AA          XX087A .BYTE $AA
00203  107B  AA          XX087B .BYTE $AA
00204  107C  AA          XX087C .BYTE $AA
00205  107D  AA          XX087D .BYTE $AA
00206  107E  AA          XX087E .BYTE $AA
00207  107F  AA          XX087F .BYTE $AA
00208  1080  AA          XX0880 .BYTE $AA
00209  1081              ;********************************
00210  1081              ; SOURCE FILE LINE BUFFER
00211  1081              ;********************************
00212  1081  AA          XX0881 .BYTE $AA
00213  1082  AA                 .BYTE $AA
00214  1083  AA                 .BYTE $AA
00215  1084  AA                 .BYTE $AA
00216  1085  AA                 .BYTE $AA
00217  1086  AA                 .BYTE $AA
00218  1087  AA                 .BYTE $AA
00219  1088  AA                 .BYTE $AA
00220  1089              ;********************************
00221  1089              ;
00222  1089              ;********************************






ASSEMBLERP64......PAGE 0006

LINE# LOC   CODE        LINE


00223  1089  D8                 .BYTE $D8
00224  108A  A9                 .BYTE $A9
00225  108B  00                 .BYTE $00
00226  108C  8D                 .BYTE $8D
00227  108D  33                 .BYTE $33
00228  108E  08                 .BYTE $08
00229  108F  8D                 .BYTE $8D
00230  1090  31                 .BYTE $31
00231  1091  08                 .BYTE $08
00232  1092  8D                 .BYTE $8D
00233  1093  32                 .BYTE $32
00234  1094  08                 .BYTE $08
00235  1095  EE                 .BYTE $EE
00236  1096  31                 .BYTE $31
00237  1097  08                 .BYTE $08
00238  1098  8D                 .BYTE $8D
00239  1099  2D                 .BYTE $2D
00240  109A  08                 .BYTE $08
00241  109B  85                 .BYTE $85
00242  109C  18                 .BYTE $18
00243  109D  85                 .BYTE $85
00244  109E  19                 .BYTE $19
00245  109F  A9                 .BYTE $A9
00246  10A0  05                 .BYTE $05
00247  10A1  A2                 .BYTE $A2
00248  10A2  00                 .BYTE $00
00249  10A3  A0                 .BYTE $A0
00250  10A4  FF                 .BYTE $FF
00251  10A5  20                 .BYTE $20
00252  10A6  BA                 .BYTE $BA
00253  10A7  FF                 .BYTE $FF
00254  10A8  A9                 .BYTE $A9
00255  10A9  00                 .BYTE $00
00256  10AA  20                 .BYTE $20
00257  10AB  BD                 .BYTE $BD
00258  10AC  FF                 .BYTE $FF
00259  10AD  20                 .BYTE $20
00260  10AE  C0                 .BYTE $C0
00261  10AF  FF                 .BYTE $FF
00262  10B0  A9                 .BYTE $A9
00263  10B1  01                 .BYTE $01
00264  10B2  A2                 .BYTE $A2
00265  10B3  03                 .BYTE $03
00266  10B4  A0                 .BYTE $A0
00267  10B5  FF                 .BYTE $FF
00268  10B6  20                 .BYTE $20
00269  10B7  BA                 .BYTE $BA
00270  10B8  FF                 .BYTE $FF
00271  10B9  A9                 .BYTE $A9
00272  10BA  00                 .BYTE $00
00273  10BB  20                 .BYTE $20
00274  10BC  BD                 .BYTE $BD
00275  10BD  FF                 .BYTE $FF
00276  10BE  20                 .BYTE $20
00277  10BF  C0                 .BYTE $C0






ASSEMBLERP64......PAGE 0007

LINE# LOC   CODE        LINE


00278  10C0  FF                 .BYTE $FF
00279  10C1  A9                 .BYTE $A9
00280  10C2  93                 .BYTE $93
00281  10C3  20                 .BYTE $20
00282  10C4  D2                 .BYTE $D2
00283  10C5  FF                 .BYTE $FF
00284  10C6  A2                 .BYTE $A2
00285  10C7  05                 .BYTE $05
00286  10C8  8E                 .BYTE $8E
00287  10C9  2D                 .BYTE $2D
00288  10CA  08                 .BYTE $08
00289  10CB  20                 .BYTE $20
00290  10CC  C6                 .BYTE $C6
00291  10CD  FF                 .BYTE $FF
00292  10CE  A9          XX08CE .BYTE $A9
00293  10CF  0D          XX08CF .BYTE $0D
00294  10D0              ;********************************
00295  10D0              ; SOURCE FILE NAME BUFFER
00296  10D0              ; PADDED WITH SPACES
00297  10D0              ;********************************
00298  10D0  A0          XX08D0 .BYTE $A0
00299  10D1  13                 .BYTE $13
00300  10D2  20                 .BYTE $20
00301  10D3  7E                 .BYTE $7E
00302  10D4  0C                 .BYTE $0C
00303  10D5  20                 .BYTE $20
00304  10D6  CF                 .BYTE $CF
00305  10D7  FF                 .BYTE $FF
00306  10D8  A2                 .BYTE $A2
00307  10D9  00                 .BYTE $00
00308  10DA  8E                 .BYTE $8E
00309  10DB  30                 .BYTE $30
00310  10DC  08                 .BYTE $08
00311  10DD  C9                 .BYTE $C9
00312  10DE  4E                 .BYTE $4E
00313  10DF  F0                 .BYTE $F0
00314  10E0  02                 .BYTE $02
00315  10E1  A2                 .BYTE $A2
00316  10E2  80                 .BYTE $80
00317  10E3  8E          XX08E3 .BYTE $8E
00318  10E4  30                 .BYTE $30
00319  10E5  08                 .BYTE $08
00320  10E6  A9                 .BYTE $A9
00321  10E7  04                 .BYTE $04
00322  10E8  AA                 .BYTE $AA
00323  10E9  A0                 .BYTE $A0
00324  10EA  FF                 .BYTE $FF
00325  10EB  20                 .BYTE $20
00326  10EC  BA                 .BYTE $BA
00327  10ED  FF                 .BYTE $FF
00328  10EE  A9                 .BYTE $A9
00329  10EF  00                 .BYTE $00
00330  10F0  20                 .BYTE $20
00331  10F1  BD                 .BYTE $BD
00332  10F2  FF                 .BYTE $FF






ASSEMBLERP64......PAGE 0008

LINE# LOC   CODE        LINE


00333  10F3  20                 .BYTE $20
00334  10F4  C0                 .BYTE $C0
00335  10F5  FF                 .BYTE $FF
00336  10F6  20                 .BYTE $20
00337  10F7  7D                 .BYTE $7D
00338  10F8  0D                 .BYTE $0D
00339  10F9  A9                 .BYTE $A9
00340  10FA  0D                 .BYTE $0D
00341  10FB  20                 .BYTE $20
00342  10FC  D2                 .BYTE $D2
00343  10FD  FF                 .BYTE $FF
00344  10FE  A9                 .BYTE $A9
00345  10FF  07                 .BYTE $07
00346  1100  A2                 .BYTE $A2
00347  1101  08                 .BYTE $08
00348  1102  A0          XX0902 .BYTE $A0
00349  1103  0F          XX0903 .BYTE $0F
00350  1104  20          XX0904 .BYTE $20
00351  1105  BA          XX0905 .BYTE $BA
00352  1106  FF          XX0906 .BYTE $FF
00353  1107  A9          XX0907 .BYTE $A9
00354  1108  49          XX0908 .BYTE $49
00355  1109  8D          XX0909 .BYTE $8D
00356  110A  57                 .BYTE $57
00357  110B  08                 .BYTE $08
00358  110C  A9                 .BYTE $A9
00359  110D  30                 .BYTE $30
00360  110E  8D                 .BYTE $8D
00361  110F  58                 .BYTE $58
00362  1110  08                 .BYTE $08
00363  1111  A2                 .BYTE $A2
00364  1112  57                 .BYTE $57
00365  1113  A0                 .BYTE $A0
00366  1114  08                 .BYTE $08
00367  1115  A9                 .BYTE $A9
00368  1116  02                 .BYTE $02
00369  1117  20          XX0917 .BYTE $20
00370  1118  BD          XX0918 .BYTE $BD
00371  1119  FF          XX0919 .BYTE $FF
00372  111A  20          XX091A .BYTE $20
00373  111B  C0                 .BYTE $C0
00374  111C  FF                 .BYTE $FF
00375  111D  A9                 .BYTE $A9
00376  111E  00                 .BYTE $00
00377  111F  A0                 .BYTE $A0
00378  1120  02                 .BYTE $02
00379  1121  8D                 .BYTE $8D
00380  1122  2E                 .BYTE $2E
00381  1123  08                 .BYTE $08
00382  1124  8C                 .BYTE $8C
00383  1125  2F                 .BYTE $2F
00384  1126  08                 .BYTE $08
00385  1127  A0                 .BYTE $A0
00386  1128  00                 .BYTE $00
00387  1129  B9          XX0929 .BYTE $B9






ASSEMBLERP64......PAGE 0009

LINE# LOC   CODE        LINE


00388  112A  4B                 .BYTE $4B
00389  112B  0D                 .BYTE $0D
00390  112C  99                 .BYTE $99
00391  112D  44                 .BYTE $44
00392  112E  08                 .BYTE $08
00393  112F  C8                 .BYTE $C8
00394  1130  C0                 .BYTE $C0
00395  1131  0E                 .BYTE $0E
00396  1132  D0                 .BYTE $D0
00397  1133  F5                 .BYTE $F5
00398  1134  20                 .BYTE $20
00399  1135  E4                 .BYTE $E4
00400  1136  0C                 .BYTE $0C
00401  1137  20                 .BYTE $20
00402  1138  CC                 .BYTE $CC
00403  1139  FF                 .BYTE $FF
00404  113A  A9                 .BYTE $A9
00405  113B  08                 .BYTE $08
00406  113C  AA                 .BYTE $AA
00407  113D  A8                 .BYTE $A8
00408  113E  20          XX093E .BYTE $20
00409  113F  BA          XX093F .BYTE $BA
00410  1140  FF          XX0940 .BYTE $FF
00411  1141  A2          XX0941 .BYTE $A2
00412  1142  3D          XX0942 .BYTE $3D
00413  1143  A0          XX0943 .BYTE $A0
00414  1144  0D          XX0944 .BYTE $0D
00415  1145  A9          XX0945 .BYTE $A9
00416  1146  0E          XX0946 .BYTE $0E
00417  1147  20          XX0947 .BYTE $20
00418  1148  BD          XX0948 .BYTE $BD
00419  1149  FF          XX0949 .BYTE $FF
00420  114A  20                 .BYTE $20
00421  114B  C0                 .BYTE $C0
00422  114C  FF                 .BYTE $FF
00423  114D  20                 .BYTE $20
00424  114E  25                 .BYTE $25
00425  114F  0C                 .BYTE $0C
00426  1150  A5                 .BYTE $A5
00427  1151  18                 .BYTE $18
00428  1152  A4                 .BYTE $A4
00429  1153  19                 .BYTE $19
00430  1154  85                 .BYTE $85
00431  1155  16                 .BYTE $16
00432  1156  84                 .BYTE $84
00433  1157  17                 .BYTE $17
00434  1158  18                 .BYTE $18
00435  1159  A5                 .BYTE $A5
00436  115A  16                 .BYTE $16
00437  115B  6D                 .BYTE $6D
00438  115C  2E                 .BYTE $2E
00439  115D  08                 .BYTE $08
00440  115E  85                 .BYTE $85
00441  115F  18                 .BYTE $18
00442  1160  A5          XX0960 .BYTE $A5






ASSEMBLERP64......PAGE 0010

LINE# LOC   CODE        LINE


00443  1161              ;********************************
00444  1161              ; OBJECT FILE NAME BUFFER
00445  1161              ;********************************
00446  1161  17          XX0961 .BYTE $17
00447  1162  6D                 .BYTE $6D
00448  1163  2F                 .BYTE $2F
00449  1164  08                 .BYTE $08
00450  1165  85                 .BYTE $85
00451  1166  19                 .BYTE $19
00452  1167  A9                 .BYTE $A9
00453  1168  AA                 .BYTE $AA
00454  1169  A0                 .BYTE $A0
00455  116A  0D                 .BYTE $0D
00456  116B  85                 .BYTE $85
00457  116C  04                 .BYTE $04
00458  116D  84                 .BYTE $84
00459  116E  05                 .BYTE $05
00460  116F  A9                 .BYTE $A9
00461  1170  AA                 .BYTE $AA
00462  1171  A0                 .BYTE $A0
00463  1172  15                 .BYTE $15
00464  1173              ;********************************
00465  1173              ; NUMBER CHARACTERS IN OBJECT FILE NAME
00466  1173              ;********************************
00467  1173  85          XX0973 .BYTE $85
00468  1174              ;********************************
00469  1174              ; OUTPUT OBJECT FILE FLAG
00470  1174              ;;********************************
00471  1174  06          XX0974 .BYTE $06
00472  1175              ;********************************
00473  1175              ;
00474  1175              ;********************************
00475  1175  84          XX0975 .BYTE $84
00476  1176  07          XX0976 .BYTE $07
00477  1177  A5          XX0977 .BYTE $A5
00478  1178  04          XX0978 .BYTE $04
00479  1179  A4          XX0979 .BYTE $A4
00480  117A  05          XX097A .BYTE $05
00481  117B  85          XX097B .BYTE $85
00482  117C  0C          XX097C .BYTE $0C
00483  117D  84          XX097D .BYTE $84
00484  117E  0D          XX097E .BYTE $0D
00485  117F  A0          XX097F .BYTE $A0
00486  1180  00          XX0980 .BYTE $00
00487  1181  98          XX0981 .BYTE $98
00488  1182  91          XX0982 .BYTE $91
00489  1183  0C          XX0983 .BYTE $0C
00490  1184  E6          XX0984 .BYTE $E6
00491  1185  0C          XX0985 .BYTE $0C
00492  1186  D0          XX0986 .BYTE $D0
00493  1187  02          XX0987 .BYTE $02
00494  1188  E6          XX0988 .BYTE $E6
00495  1189              ;********************************
00496  1189              ; L0000
00497  1189              ;********************************






ASSEMBLERP64......PAGE 0011

LINE# LOC   CODE        LINE


00498  1189  0D          XX0989 .BYTE $0D
00499  118A  A5                 .BYTE $A5
00500  118B  0D                 .BYTE $0D
00501  118C  C5                 .BYTE $C5
00502  118D  07          XX098D .BYTE $07
00503  118E  D0          XX098E .BYTE $D0
00504  118F  F1          XX098F .BYTE $F1
00505  1190              ;********************************
00506  1190              ; END VARIABLE STORAGE
00507  1190              ;********************************
00508  1190              .END
00509  1190              ;********************************
00510  1190              ;
00511  1190              ;********************************
00512  1190  A2 FF       XX0990 LDX #$FF
00513  1192  9A                 TXS 
00514  1193  D8                 CLD 
00515  1194  A9 00              LDA #$00
00516  1196  8D 38 10           STA XX0838
00517  1199  8E 74 11           STX XX0974
00518  119C  8D 72 10           STA XX0872
00519  119F  8D 39 10           STA XX0839
00520  11A2  8D 66 10           STA XX0866
00521  11A5  8D 7F 10           STA XX087F
00522  11A8  8D 4D 10           STA XX084D
00523  11AB  8D 4E 10           STA XX084E
00524  11AE  8D 75 10           STA XX0875
00525  11B1  8D 83 11           STA XX0983
00526  11B4  8D 84 11           STA XX0984
00527  11B7  8D 87 11           STA XX0987
00528  11BA  8D 88 11           STA XX0988
00529  11BD  8D 5B 10           STA XX085B
00530  11C0  8D 5C 10           STA XX085C
00531  11C3              ;********************************
00532  11C3              ; POINTER TO END OF CODE SPACE
00533  11C3              ;********************************
00534  11C3  A0 35              LDY #>XX2DF1    ;#$2D      ;'-'
00535  11C5  A2 F1              LDX #<XX2DF1    ;#$F1
00536  11C7  86 0E              STX $0E
00537  11C9  84 0F              STY $0F
00538  11CB              ;********************************
00539  11CB              ;
00540  11CB              ;********************************
00541  11CB  A0 00              LDY #$00
00542  11CD  98                 TYA 
00543  11CE  91 0E              STA ($0E),Y
00544  11D0              ; SOME KIND OF OFFSET MAY BE END OF WORKSPACE
00545  11D0  A0 87              LDY #$87
00546  11D2  A2 FF              LDX #$FF
00547  11D4  86 14              STX $14
00548  11D6  84 15              STY $15
00549  11D8              ; SOME KIND OF OFFSET
00550  11D8  A0 88              LDY #$88
00551  11DA  A2 00              LDX #$00
00552  11DC  8E 76 11           STX XX0976






ASSEMBLERP64......PAGE 0012

LINE# LOC   CODE        LINE


00553  11DF  8C 77 11           STY XX0977
00554  11E2  20 2C 14           JSR XX0C2C
00555  11E5  A9 01              LDA #$01
00556  11E7  8D 4F 10           STA XX084F
00557  11EA  A9 00              LDA #$00
00558  11EC  8D 50 10           STA XX0850
00559  11EF  A9 05              LDA #$05
00560  11F1  A0 FF              LDY #$FF
00561  11F3  A2 00              LDX #$00
00562  11F5  20 BA FF           JSR SETLFS
00563  11F8  A9 00              LDA #$00
00564  11FA  20 BD FF           JSR SETNAM
00565  11FD  20 C0 FF           JSR OPEN
00566  1200  A9 01              LDA #$01
00567  1202  A0 FF              LDY #$FF
00568  1204  A2 03              LDX #$03
00569  1206  20 BA FF           JSR SETLFS
00570  1209  20 C0 FF           JSR OPEN
00571  120C              ;********************************
00572  120C              ; PRINT STARTUP BANNER
00573  120C              ;********************************
00574  120C  A9 0D       XX0A0C LDA #$0D
00575  120E  20 D2 FF           JSR CHROUT
00576  1211  A9 2B              LDA #>AA2340    ;#$23      ;'#'
00577  1213  A0 40              LDY #<AA2340    ;#$40      ;'@'
00578  1215  20 68 14           JSR XX0C68
00579  1218              ;********************************
00580  1218              ;
00581  1218              ;********************************
00582  1218  20 CC FF           JSR CLRCHN
00583  121B  A2 05              LDX #$05
00584  121D  8E 39 10           STX XX0839
00585  1220  20 C6 FF           JSR CHKIN
00586  1223  A2 28              LDX #$28        ;'('
00587  1225  86 05              STX $05
00588  1227  C6 05       XX0A27 DEC $05
00589  1229  F0 E1              BEQ XX0A0C
00590  122B  20 CF FF           JSR CHRIN
00591  122E  C9 20              CMP #$20        ;' '
00592  1230  F0 F5              BEQ XX0A27
00593  1232  C9 0D              CMP #$0D
00594  1234  F0 40              BEQ XX0A76
00595  1236  A2 00              LDX #$00
00596  1238  8E 74 11           STX XX0974
00597  123B  8E 73 11           STX XX0973
00598  123E  F0 07              BEQ XX0A47
00599  1240  20 CF FF    XX0A40 JSR CHRIN
00600  1243  C9 20              CMP #$20        ;' '
00601  1245  F0 14              BEQ XX0A5B
00602  1247  C9 0D       XX0A47 CMP #$0D
00603  1249  F0 10              BEQ XX0A5B
00604  124B  AE 73 11           LDX XX0973
00605  124E  E0 12              CPX #$12
00606  1250  F0 BA              BEQ XX0A0C
00607  1252  9D 61 11           STA XX0961,X






ASSEMBLERP64......PAGE 0013

LINE# LOC   CODE        LINE


00608  1255  E8                 INX 
00609  1256  8E 73 11           STX XX0973
00610  1259  D0 E5              BNE XX0A40
00611  125B  A9 2C       XX0A5B LDA #$2C        ;','
00612  125D  9D 61 11           STA XX0961,X
00613  1260  E8                 INX 
00614  1261  A9 53              LDA #$53        ;'S'
00615  1263  9D 61 11           STA XX0961,X
00616  1266  E8                 INX 
00617  1267  A9 2C              LDA #$2C        ;','
00618  1269  9D 61 11           STA XX0961,X
00619  126C  E8                 INX 
00620  126D  A9 57              LDA #$57        ;'W'
00621  126F  9D 61 11           STA XX0961,X
00622  1272  E8                 INX 
00623  1273  8E 73 11           STX XX0973
00624  1276              ;********************************
00625  1276              ; PRINT HARD COPY ?
00626  1276              ;********************************
00627  1276  A9 2B       XX0A76 LDA #>AA23A5    ;#$23      ;'#'
00628  1278  A0 A5              LDY #<AA23A5    ;#$A5
00629  127A  20 68 14           JSR XX0C68
00630  127D              ;********************************
00631  127D              ; PROCESS INPUT
00632  127D              ;********************************
00633  127D  20 CF FF           JSR CHRIN
00634  1280  A2 00              LDX #$00
00635  1282  8E 73 10           STX XX0873
00636  1285  C9 4E              CMP #$4E        ;'N'
00637  1287  F0 15              BEQ XX0A9E
00638  1289  A9 04              LDA #$04
00639  128B  AA                 TAX 
00640  128C  A0 FF              LDY #$FF
00641  128E  20 BA FF           JSR SETLFS
00642  1291  A9 00              LDA #$00
00643  1293  20 BD FF           JSR SETNAM
00644  1296  20 C0 FF           JSR OPEN
00645  1299  A9 80              LDA #$80
00646  129B  8D 73 10           STA XX0873
00647  129E              ;********************************
00648  129E              ; CROSS REFERENCE ?
00649  129E              ;********************************
00650  129E  A9 2B       XX0A9E LDA #>AA23BD    ;#$23      ;'#'
00651  12A0  A0 BD              LDY #<AA23BD    ;#$BD
00652  12A2  20 68 14           JSR XX0C68
00653  12A5              ;********************************
00654  12A5              ; PROCESS INPUT
00655  12A5              ;********************************
00656  12A5  20 CF FF           JSR CHRIN
00657  12A8  C9 59              CMP #$59        ;'Y'
00658  12AA  D0 03              BNE XX0AAF
00659  12AC  8D 38 10           STA XX0838
00660  12AF              ;********************************
00661  12AF              ; SOURCE FILE NAME
00662  12AF              ;********************************






ASSEMBLERP64......PAGE 0014

LINE# LOC   CODE        LINE


00663  12AF  A9 2B       XX0AAF LDA #>AA2310    ;#$23      ;'#'
00664  12B1  A0 10              LDY #<AA2310    ;#$10
00665  12B3  20 68 14           JSR XX0C68
00666  12B6              ;********************************
00667  12B6              ; PROCESS INPUT
00668  12B6              ;********************************
00669  12B6  A2 28              LDX #$28        ;'('
00670  12B8  86 05              STX $05
00671  12BA  C6 05       XX0ABA DEC $05
00672  12BC  F0 B8              BEQ XX0A76
00673  12BE  20 CF FF           JSR CHRIN
00674  12C1  C9 20              CMP #$20        ;' '
00675  12C3  F0 F5              BEQ XX0ABA
00676  12C5  C9 0D              CMP #$0D
00677  12C7  D0 03              BNE XX0ACC
00678  12C9  4C 71 30           JMP XX2871
00679  12CC              ;********************************
00680  12CC  48          XX0ACC PHA 
00681  12CD  20 22 13           JSR XX0B22
00682  12D0  68                 PLA 
00683  12D1  A2 00              LDX #$00
00684  12D3  8E 4C 10           STX XX084C
00685  12D6  F0 07              BEQ XX0ADF
00686  12D8  20 CF FF    XX0AD8 JSR CHRIN
00687  12DB  C9 20              CMP #$20        ;' '
00688  12DD  F0 17              BEQ XX0AF6
00689  12DF  C9 0D       XX0ADF CMP #$0D
00690  12E1  F0 13              BEQ XX0AF6
00691  12E3  AE 4C 10           LDX XX084C
00692  12E6  E0 12              CPX #$12
00693  12E8  F0 B4              BEQ XX0A9E
00694  12EA  9D 3A 10           STA XX083A,X
00695  12ED  E8                 INX 
00696  12EE  8E 4C 10           STX XX084C
00697  12F1  8E 4A 10           STX XX084A
00698  12F4  D0 E2              BNE XX0AD8
00699  12F6  A9 2C       XX0AF6 LDA #$2C        ;','
00700  12F8  9D 3A 10           STA XX083A,X
00701  12FB  E8                 INX 
00702  12FC  A9 53              LDA #$53        ;'S'
00703  12FE  9D 3A 10           STA XX083A,X
00704  1301  E8                 INX 
00705  1302  8E 4A 10           STX XX084A
00706  1305              ; PRINT CR
00707  1305  A9 2A              LDA #>AA22DA    ;#$22      ;'"'
00708  1307  A0 DA              LDY #<AA22DA    ;#$DA
00709  1309  20 68 14           JSR XX0C68
00710  130C  20 41 13           JSR XX0B41
00711  130F  20 5F 13           JSR XX0B5F
00712  1312              ; PRINT PASS 1
00713  1312  A9 2A              LDA #>AA22D4    ;#$22      ;'"'
00714  1314  A0 D4              LDY #<AA22D4    ;#$D4
00715  1316  20 68 14           JSR XX0C68
00716  1319  20 93 14           JSR XX0C93
00717  131C  20 21 25           JSR XX1D21






ASSEMBLERP64......PAGE 0015

LINE# LOC   CODE        LINE


00718  131F  4C AF 14           JMP XX0CAF
00719  1322              ;********************************
00720  1322  A9 07       XX0B22 LDA #$07
00721  1324  A2 08              LDX #$08
00722  1326  A0 0F              LDY #$0F
00723  1328  20 BA FF           JSR SETLFS
00724  132B  A9 49              LDA #$49        ;'I'
00725  132D  8D 08 11           STA XX0908
00726  1330  A9 30              LDA #$30        ;'0'
00727  1332  8D 09 11           STA XX0909
00728  1335  A0 11              LDY #>XX0908    ;#$09
00729  1337  A2 08              LDX #<XX0908    ;#$08
00730  1339  A9 02              LDA #$02
00731  133B  20 BD FF           JSR SETNAM
00732  133E  4C C0 FF           JMP OPEN
00733  1341              ;********************************
00734  1341  A9 02       XX0B41 LDA #$02
00735  1343  A8                 TAY 
00736  1344  A2 08              LDX #$08
00737  1346  20 BA FF           JSR SETLFS
00738  1349  A0 10              LDY #>XX083A    ;#$08
00739  134B  A2 3A              LDX #<XX083A    ;#$3A      ;':'
00740  134D  AD 4A 10           LDA XX084A
00741  1350  20 BD FF           JSR SETNAM
00742  1353  20 C0 FF           JSR OPEN
00743  1356  20 FE 2F           JSR XX27FE
00744  1359  A9 80              LDA #$80
00745  135B  8D 7F 10           STA XX087F
00746  135E  60                 RTS 
00747  135F              ;********************************
00748  135F              ; VIC-II CONTROL - SCREEN OFF
00749  135F              ;********************************
00750  135F  AD 73 10    XX0B5F LDA XX0873
00751  1362  10 08              BPL XX0B6C
00752  1364  AD 06 FF           LDA SCROLY
00753  1367  29 EF              AND #$EF
00754  1369  8D 06 FF           STA SCROLY
00755  136C  60          XX0B6C RTS 
00756  136D              ;********************************
00757  136D              ; VIC-II CONTROL - SCREEN ON
00758  136D              ;********************************
00759  136D  AD 06 FF    XX0B6D LDA SCROLY
00760  1370  09 10              ORA #$10
00761  1372  8D 06 FF           STA SCROLY
00762  1375  60                 RTS 
00763  1376              ;********************************
00764  1376  20 CC FF    XX0B76 JSR CLRCHN
00765  1379  AD 38 10           LDA XX0838
00766  137C  D0 03              BNE XX0B81
00767  137E  4C F9 13           JMP XX0BF9
00768  1381              ;********************************
00769  1381  A9 08       XX0B81 LDA #$08
00770  1383  AA                 TAX 
00771  1384  A8                 TAY 
00772  1385  20 BA FF           JSR SETLFS






ASSEMBLERP64......PAGE 0016

LINE# LOC   CODE        LINE


00773  1388              ; 0:XRLL0000,S,W      
00774  1388  A0 2B              LDY #>AA23DD    ; #$23      ;'#'
00775  138A  A2 DD              LDX #<AA23DD    ; #$DD
00776  138C  A9 0E              LDA #$0E
00777  138E  20 BD FF           JSR SETNAM
00778  1391  20 C0 FF           JSR OPEN
00779  1394  20 FE 2F           JSR XX27FE
00780  1397  20 CC FF           JSR CLRCHN
00781  139A  A2 08              LDX #$08
00782  139C  8E 39 10           STX XX0839
00783  139F  20 C9 FF           JSR CHKOUT
00784  13A2  A5 0E              LDA $0E
00785  13A4  A4 0F              LDY $0F
00786  13A6  85 16              STA $16
00787  13A8  84 17              STY $17
00788  13AA  AD 4E 10           LDA XX084E
00789  13AD  AC 4D 10           LDY XX084D
00790  13B0  85 1C              STA $1C
00791  13B2  84 1D              STY $1D
00792  13B4  A0 00       XX0BB4 LDY #$00
00793  13B6  B1 16       XX0BB6 LDA ($16),Y
00794  13B8  20 D2 FF           JSR CHROUT
00795  13BB  C8                 INY 
00796  13BC  C0 08              CPY #$08
00797  13BE  D0 F6              BNE XX0BB6
00798  13C0  A5 1C              LDA $1C
00799  13C2  D0 02              BNE XX0BC6
00800  13C4  C6 1D              DEC $1D
00801  13C6  C6 1C       XX0BC6 DEC $1C
00802  13C8  A5 1C              LDA $1C
00803  13CA  05 1D              ORA $1D
00804  13CC  F0 0C              BEQ XX0BDA
00805  13CE  98                 TYA 
00806  13CF  18                 CLC 
00807  13D0  65 16              ADC $16
00808  13D2  85 16              STA $16
00809  13D4  90 DE              BCC XX0BB4
00810  13D6  E6 17              INC $17
00811  13D8  D0 DA              BNE XX0BB4
00812  13DA  20 CC FF    XX0BDA JSR CLRCHN
00813  13DD  A9 08              LDA #$08
00814  13DF  20 C3 FF           JSR CLOSE
00815  13E2  A9 09              LDA #$09
00816  13E4  A8                 TAY 
00817  13E5  A2 08              LDX #$08
00818  13E7  20 BA FF           JSR SETLFS
00819  13EA              ; 0:XRFF0000,S,W       
00820  13EA  A0 2B              LDY #>AA23EB    ;#$23      ;'#'
00821  13EC  A2 EB              LDX #<AA23EB    ;#$EB
00822  13EE  A9 0E              LDA #$0E
00823  13F0  20 BD FF           JSR SETNAM
00824  13F3  20 C0 FF           JSR OPEN
00825  13F6  20 FE 2F           JSR XX27FE
00826  13F9  20 2C 14    XX0BF9 JSR XX0C2C
00827  13FC  20 F2 30           JSR XX28F2






ASSEMBLERP64......PAGE 0017

LINE# LOC   CODE        LINE


00828  13FF              ; PRINT PASS 2
00829  13FF  A9 2A              LDA #>AA22DB    ;#$22      ;'"'
00830  1401  A0 DB              LDY #<AA22DB    ;#$DB
00831  1403  20 68 14           JSR XX0C68
00832  1406  AD 74 11           LDA XX0974
00833  1409  D0 18              BNE XX0C23
00834  140B              ;********************************
00835  140B              ; OPEN OBJECT FILE FOR OUTPUT
00836  140B              ;********************************
00837  140B  AD 73 11           LDA XX0973
00838  140E  A0 11              LDY #>XX0961    ;#$09
00839  1410  A2 61              LDX #<XX0961    ;#$61
00840  1412  20 BD FF           JSR SETNAM
00841  1415  A9 06              LDA #$06
00842  1417  A8                 TAY 
00843  1418  A2 08              LDX #$08
00844  141A  20 BA FF           JSR SETLFS
00845  141D  20 C0 FF           JSR OPEN
00846  1420  20 FE 2F           JSR XX27FE
00847  1423              ;********************************
00848  1423              ;
00849  1423              ;********************************
00850  1423              ;XX0C23 JSR XX0C93
00851  1423  20          XX0C23 .BYTE $20
00852  1424  93          XX0C24 .BYTE <XX0C93   ;$93
00853  1425  14          XX0C25 .BYTE >XX0C93   ;$0C
00854  1426  20 41 13           JSR XX0B41
00855  1429  4C AF 14           JMP XX0CAF
00856  142C              ;********************************
00857  142C  A9 00       XX0C2C LDA #$00
00858  142E  85 06              STA $06
00859  1430  85 07              STA $07
00860  1432  8D 67 10           STA XX0867
00861  1435  8D 68 10           STA XX0868
00862  1438  8D 59 10           STA XX0859
00863  143B  8D 8F 11           STA XX098F
00864  143E  A9 0D              LDA #$0D
00865  1440  8D 4B 10           STA XX084B
00866  1443  A9 DC              LDA #$DC
00867  1445  8D 74 10           STA XX0874
00868  1448              ; SOME FIND OF OFFSET       
00869  1448  A0 9C              LDY #$9C
00870  144A  A2 00              LDX #$00
00871  144C  8E 78 11           STX XX0978
00872  144F  8C 79 11           STY XX0979
00873  1452  8E 85 11           STX XX0985
00874  1455  8C 86 11           STY XX0986
00875  1458  A9 30              LDA #$30        ;'0'
00876  145A  A0 03              LDY #$03
00877  145C  99 89 11    XX0C5C STA XX0989,Y
00878  145F  88                 DEY 
00879  1460  D0 FA              BNE XX0C5C
00880  1462  A9 4C              LDA #$4C        ;'L'
00881  1464  8D 89 11           STA XX0989
00882  1467  60                 RTS 






ASSEMBLERP64......PAGE 0018

LINE# LOC   CODE        LINE


00883  1468              ;********************************
00884  1468              ; PRINT STRING WITH HIGH BIT SET IN LAST BYTE
00885  1468              ;********************************
00886  1468  48          XX0C68 PHA 
00887  1469  A9 01              LDA #$01
00888  146B  CD 39 10           CMP XX0839
00889  146E  F0 0F              BEQ XX0C7F
00890  1470  98                 TYA 
00891  1471  48                 PHA 
00892  1472  20 CC FF           JSR CLRCHN
00893  1475  A2 01              LDX #$01
00894  1477  8E 39 10           STX XX0839
00895  147A  20 C9 FF           JSR CHKOUT
00896  147D  68                 PLA 
00897  147E  A8          XX0C7E TAY 
00898  147F  68          XX0C7F PLA 
00899  1480  85 09              STA $09
00900  1482  84 08              STY $08
00901  1484  A0 00              LDY #$00
00902  1486  B1 08       XX0C86 LDA ($08),Y
00903  1488  C8                 INY 
00904  1489  48                 PHA 
00905  148A  29 7F              AND #$7F
00906  148C  20 D2 FF           JSR CHROUT
00907  148F  68                 PLA 
00908  1490  10 F4              BPL XX0C86
00909  1492  60                 RTS 
00910  1493              ;********************************
00911  1493  A0 13       XX0C93 LDY #$13
00912  1495  A9 20              LDA #$20        ;' '
00913  1497  99 D0 10    XX0C97 STA XX08D0,Y
00914  149A  88                 DEY 
00915  149B  10 FA              BPL XX0C97
00916  149D  AE 4A 10           LDX XX084A
00917  14A0  CA                 DEX 
00918  14A1  CA                 DEX 
00919  14A2  8E 59 10           STX XX0859
00920  14A5  BD 39 10    XX0CA5 LDA XX0839,X
00921  14A8  9D CF 10           STA XX08CF,X
00922  14AB  CA                 DEX 
00923  14AC  D0 F7              BNE XX0CA5
00924  14AE  60                 RTS 
00925  14AF              ;********************************
00926  14AF  20 D7 2F    XX0CAF JSR XX27D7
00927  14B2  A9 00              LDA #$00
00928  14B4  8D 62 10           STA XX0862
00929  14B7  8D 75 10           STA XX0875
00930  14BA  8D 69 10           STA XX0869
00931  14BD  8D 6A 10           STA XX086A
00932  14C0  8D 71 10           STA XX0871
00933  14C3  8D 77 10           STA XX0877
00934  14C6  8D 6B 10           STA XX086B
00935  14C9  8D 6C 10           STA XX086C
00936  14CC  8D 6D 10           STA XX086D
00937  14CF  8D 61 10           STA XX0861






ASSEMBLERP64......PAGE 0019

LINE# LOC   CODE        LINE


00938  14D2  8D 63 10           STA XX0863
00939  14D5  8D 64 10           STA XX0864
00940  14D8  8D 65 10           STA XX0865
00941  14DB  8D 6E 10           STA XX086E
00942  14DE  AD 4B 10           LDA XX084B
00943  14E1  F0 05              BEQ XX0CE8
00944  14E3              ;       JSR XX0CEB
00945  14E3  20          XX0CE3 .BYTE $20
00946  14E4  EB          XX0CE4 .BYTE <XX0CEB   ;$EB
00947  14E5  14          XX0CE5 .BYTE >XX0CEB   ;$0C
00948  14E6  90 27              BCC XX0D0F
00949  14E8  4C 35 19    XX0CE8 JMP XX1135
00950  14EB              ;********************************
00951  14EB  A2 00       XX0CEB LDX #$00
00952  14ED  EE 68 10           INC XX0868
00953  14F0  D0 03              BNE XX0CF5
00954  14F2  EE 67 10           INC XX0867
00955  14F5  20 5F 2E    XX0CF5 JSR XX265F
00956  14F8  C9 0D              CMP #$0D
00957  14FA  F0 0D              BEQ XX0D09
00958  14FC  C9 00              CMP #$00
00959  14FE  D0 02              BNE XX0D02
00960  1500  38                 SEC 
00961  1501  60                 RTS 
00962  1502              ;********************************
00963  1502  9D 80 10    XX0D02 STA XX0880,X
00964  1505  E8                 INX 
00965  1506  4C F5 14           JMP XX0CF5
00966  1509              ;********************************
00967  1509  CA          XX0D09 DEX 
00968  150A  8E 77 10           STX XX0877
00969  150D  18                 CLC 
00970  150E  60                 RTS 
00971  150F              ;********************************
00972  150F  20 D1 1D    XX0D0F JSR XX15D1
00973  1512  90 11              BCC XX0D25
00974  1514  AE 6E 10           LDX XX086E
00975  1517  BD 80 10           LDA XX0880,X
00976  151A  C9 3E              CMP #$3E        ;'>'
00977  151C  D0 03              BNE XX0D21
00978  151E  4C CB 1D           JMP XX15CB
00979  1521              ;********************************
00980  1521  C9 3B       XX0D21 CMP #$3B        ;';'
00981  1523  D0 03              BNE XX0D28
00982  1525  4C C4 1D    XX0D25 JMP XX15C4
00983  1528              ;********************************
00984  1528  20 F5 1D    XX0D28 JSR XX15F5
00985  152B  B0 09              BCS XX0D36
00986  152D  A9 03              LDA #$03
00987  152F  AE 69 10           LDX XX0869
00988  1532  A8                 TAY 
00989  1533  4C C8 1D           JMP XX15C8
00990  1536              ;********************************
00991  1536  AE 69 10    XX0D36 LDX XX0869
00992  1539  BD 80 10           LDA XX0880,X






ASSEMBLERP64......PAGE 0020

LINE# LOC   CODE        LINE


00993  153C  C9 2E              CMP #$2E        ;'.'
00994  153E  D0 03              BNE XX0D43
00995  1540  4C DD 16           JMP XX0EDD
00996  1543              ;********************************
00997  1543  C9 2A       XX0D43 CMP #$2A        ;'*'
00998  1545  D0 03              BNE XX0D4A
00999  1547  4C 1B 16           JMP XX0E1B
01000  154A              ;********************************
01001  154A              ;XX0D4A LDY XX086B
01002  154A  AC          XX0D4A .BYTE $AC
01003  154B  6B          XX0D4B .BYTE <XX086B   ;$6B
01004  154C  10          XX0D4C .BYTE >XX086B   ;$08 
01005  154D  C0 06              CPY #$06
01006  154F  F0 09              BEQ XX0D5A
01007  1551  90 07              BCC XX0D5A
01008  1553  A9 09              LDA #$09
01009  1555  A0 03              LDY #$03
01010  1557  4C C8 1D           JMP XX15C8
01011  155A              ;********************************
01012  155A  8C 56 10    XX0D5A STY XX0856
01013  155D  20 8F 1E           JSR XX168F
01014  1560  B0 07              BCS XX0D69
01015  1562  A9 10              LDA #$10
01016  1564  A0 03              LDY #$03
01017  1566  4C C8 1D           JMP XX15C8
01018  1569              ;********************************
01019  1569  AD 6B 10    XX0D69 LDA XX086B
01020  156C  C9 03              CMP #$03
01021  156E  D0 08              BNE XX0D78
01022  1570  20 33 23           JSR XX1B33
01023  1573  90 03              BCC XX0D78
01024  1575  4C 9A 1A           JMP XX129A
01025  1578              ;********************************
01026  1578  AE 6E 10    XX0D78 LDX XX086E
01027  157B              ;       JSR XX1675
01028  157B  20          XX0D7B .BYTE $20
01029  157C  75          XX0D7C .BYTE <XX1675   ;$75
01030  157D  1E          XX0D7D .BYTE >XX1675   ;$16
01031  157E  B0 07              BCS XX0D87
01032  1580  A9 08              LDA #$08
01033  1582  A0 03              LDY #$03
01034  1584  4C C8 1D           JMP XX15C8
01035  1587              ;********************************
01036  1587  20 CB 35    XX0D87 JSR XX2DCB
01037  158A  8E 61 10           STX XX0861
01038  158D  A2 00              LDX #$00
01039  158F  BD 08 11    XX0D8F LDA XX0908,X
01040  1592  48                 PHA 
01041  1593  E8                 INX 
01042  1594  E0 06              CPX #$06
01043  1596  D0 F7              BNE XX0D8F
01044  1598  AD 6B 10           LDA XX086B
01045  159B  48                 PHA 
01046  159C  AD 6A 10           LDA XX086A
01047  159F  8D 6E 10           STA XX086E






ASSEMBLERP64......PAGE 0021

LINE# LOC   CODE        LINE


01048  15A2  EE 6E 10           INC XX086E
01049  15A5  20 D1 1D           JSR XX15D1
01050  15A8  90 11              BCC XX0DBB
01051  15AA  BD 80 10           LDA XX0880,X
01052  15AD  C9 3D              CMP #$3D        ;'='
01053  15AF  D0 0A              BNE XX0DBB
01054  15B1  AD 63 10           LDA XX0863
01055  15B4  D0 3E              BNE XX0DF4
01056  15B6  EE 63 10           INC XX0863
01057  15B9  D0 7A              BNE XX0E35
01058  15BB  20 F8 21    XX0DBB JSR XX19F8
01059  15BE  90 2F              BCC XX0DEF
01060  15C0  AD 53 10           LDA XX0853
01061  15C3  C5 07              CMP $07
01062  15C5  D0 07              BNE XX0DCE
01063  15C7  AD 54 10           LDA XX0854
01064  15CA  C5 06              CMP $06
01065  15CC  F0 3F              BEQ XX0E0D
01066  15CE  AD 53 10    XX0DCE LDA XX0853
01067  15D1  2D 54 10           AND XX0854
01068  15D4  C9 FF              CMP #$FF
01069  15D6  D0 0D              BNE XX0DE5
01070  15D8  20 55 33           JSR XX2B55
01071  15DB  90 03              BCC XX0DE0
01072  15DD  4C 89 33           JMP XX2B89
01073  15E0              ;********************************
01074  15E0  AD 66 10    XX0DE0 LDA XX0866
01075  15E3  D0 28              BNE XX0E0D
01076  15E5  A9 02       XX0DE5 LDA #$02
01077  15E7  A0 03              LDY #$03
01078  15E9  AE 61 10           LDX XX0861
01079  15EC  4C C8 1D           JMP XX15C8
01080  15EF              ;********************************
01081  15EF  AD 63 10    XX0DEF LDA XX0863
01082  15F2  F0 09              BEQ XX0DFD
01083  15F4  A9 03       XX0DF4 LDA #$03
01084  15F6  A8                 TAY 
01085  15F7  AE 69 10           LDX XX0869
01086  15FA  4C C8 1D           JMP XX15C8
01087  15FD              ;********************************
01088  15FD  EE 63 10    XX0DFD INC XX0863
01089  1600  A5 07              LDA $07
01090  1602  8D 53 10           STA XX0853
01091  1605  A5 06              LDA $06
01092  1607  8D 54 10           STA XX0854
01093  160A  20 CC 22           JSR XX1ACC
01094  160D  AD 77 10    XX0E0D LDA XX0877
01095  1610  CD 6E 10           CMP XX086E
01096  1613  B0 03              BCS XX0E18
01097  1615  4C C4 1D           JMP XX15C4
01098  1618              ;********************************
01099  1618  4C 0F 15    XX0E18 JMP XX0D0F
01100  161B              ;********************************
01101  161B  A9 FF       XX0E1B LDA #$FF
01102  161D  8D 64 10           STA XX0864






ASSEMBLERP64......PAGE 0022

LINE# LOC   CODE        LINE


01103  1620  EE 6E 10           INC XX086E
01104  1623  8E 61 10           STX XX0861
01105  1626  20 D1 1D           JSR XX15D1
01106  1629  B0 03              BCS XX0E2E
01107  162B  4C 9C 1D    XX0E2B JMP XX159C
01108  162E              ;********************************
01109  162E              ;********************************
01110  162E              ;.END
01111  162E              ;*=$0E2E
01112  162E              ;********************************
01113  162E  BD 80 10    XX0E2E LDA XX0880,X
01114  1631  C9 3D              CMP #$3D        ;'='
01115  1633  D0 F6              BNE XX0E2B
01116  1635  EE 6E 10    XX0E35 INC XX086E
01117  1638  AD 6E 10           LDA XX086E
01118  163B  CD 77 10           CMP XX0877
01119  163E  F0 05              BEQ XX0E45
01120  1640  90 03              BCC XX0E45
01121  1642  4C 9C 1D           JMP XX159C
01122  1645              ;********************************
01123  1645  20 D1 1D    XX0E45 JSR XX15D1
01124  1648  B0 0A              BCS XX0E54
01125  164A  AE 6A 10           LDX XX086A
01126  164D  A9 07              LDA #$07
01127  164F  A0 00              LDY #$00
01128  1651  4C C8 1D           JMP XX15C8
01129  1654              ;********************************
01130  1654  20 BC 1E    XX0E54 JSR XX16BC
01131  1657  CE 57 10           DEC XX0857
01132  165A  30 10              BMI XX0E6C
01133  165C  D0 07              BNE XX0E65
01134  165E  A9 11              LDA #$11
01135  1660  A0 03              LDY #$03
01136  1662  4C C8 1D           JMP XX15C8
01137  1665              ;********************************
01138  1665  A9 13       XX0E65 LDA #$13
01139  1667  A0 03              LDY #$03
01140  1669  4C C8 1D           JMP XX15C8
01141  166C              ;********************************
01142  166C  AD 64 10    XX0E6C LDA XX0864
01143  166F  F0 2E              BEQ XX0E9F
01144  1671  A9 01              LDA #$01
01145  1673  2D 75 10           AND XX0875
01146  1676  F0 13              BEQ XX0E8B
01147  1678  A2 00              LDX #$00
01148  167A  86 06              STX $06
01149  167C  86 07              STX $07
01150  167E  AE 69 10           LDX XX0869
01151  1681  A9 21              LDA #$21        ;'!'
01152  1683  A0 FF              LDY #$FF
01153  1685  20 68 23           JSR XX1B68
01154  1688  4C CB 1D           JMP XX15CB
01155  168B              ;********************************
01156  168B  A2 00       XX0E8B LDX #$00
01157  168D  8A                 TXA 






ASSEMBLERP64......PAGE 0023

LINE# LOC   CODE        LINE


01158  168E  A8                 TAY 
01159  168F  20 68 23           JSR XX1B68
01160  1692  AD 6C 10           LDA XX086C
01161  1695  85 07              STA $07
01162  1697  AD 6D 10           LDA XX086D
01163  169A  85 06              STA $06
01164  169C  4C CB 1D           JMP XX15CB
01165  169F              ;********************************
01166  169F  68          XX0E9F PLA 
01167  16A0  8D 6B 10           STA XX086B
01168  16A3  A2 05              LDX #$05
01169  16A5  68          XX0EA5 PLA 
01170  16A6  9D 08 11           STA XX0908,X
01171  16A9  CA                 DEX 
01172  16AA  10 F9              BPL XX0EA5
01173  16AC  20 F8 21           JSR XX19F8
01174  16AF  90 1A              BCC XX0ECB
01175  16B1  AD 53 10           LDA XX0853
01176  16B4  CD 6C 10           CMP XX086C
01177  16B7  D0 08              BNE XX0EC1
01178  16B9  AD 54 10           LDA XX0854
01179  16BC  CD 6D 10           CMP XX086D
01180  16BF  F0 19              BEQ XX0EDA
01181  16C1  AE 61 10    XX0EC1 LDX XX0861
01182  16C4  A9 02              LDA #$02
01183  16C6  A0 00              LDY #$00
01184  16C8  4C C8 1D           JMP XX15C8
01185  16CB              ;********************************
01186  16CB  AD 6C 10    XX0ECB LDA XX086C
01187  16CE  8D 53 10           STA XX0853
01188  16D1  AD 6D 10           LDA XX086D
01189  16D4  8D 54 10           STA XX0854
01190  16D7  20 CC 22           JSR XX1ACC
01191  16DA  4C C4 1D    XX0EDA JMP XX15C4
01192  16DD              ;********************************
01193  16DD  A9 14       XX0EDD LDA #$14
01194  16DF  8D 71 10           STA XX0871
01195  16E2  AE 69 10           LDX XX0869
01196  16E5  E8                 INX 
01197  16E6              ; ASSEMBLER DIRECTIVE TABLE       
01198  16E6  A9 45              LDA #<AA2045    ;#$45      ;'E'
01199  16E8  85 08              STA $08
01200  16EA  A9 28              LDA #>AA2045    ;#$20      ;' '
01201  16EC  85 09              STA $09
01202  16EE  A9 03              LDA #$03
01203  16F0  8D 56 10           STA XX0856
01204  16F3  20 8F 1E           JSR XX168F
01205  16F6  EC 77 10    XX0EF6 CPX XX0877
01206  16F9  F0 02              BEQ XX0EFD
01207  16FB  B0 0B              BCS XX0F08
01208  16FD  BD 80 10    XX0EFD LDA XX0880,X
01209  1700  C9 20              CMP #$20        ;' '
01210  1702  F0 04              BEQ XX0F08
01211  1704  E8                 INX 
01212  1705  4C F6 16           JMP XX0EF6






ASSEMBLERP64......PAGE 0024

LINE# LOC   CODE        LINE


01213  1708              ;********************************
01214  1708  8E 6E 10    XX0F08 STX XX086E
01215  170B  A9 00              LDA #$00
01216  170D  8D 5A 10           STA XX085A
01217  1710  B0 03              BCS XX0F15
01218  1712  4C A1 1D           JMP XX15A1
01219  1715              ;********************************
01220  1715  A2 19       XX0F15 LDX #$19
01221  1717  A0 02       XX0F17 LDY #$02
01222  1719  B9 08 11    XX0F19 LDA XX0908,Y
01223  171C  D1 08              CMP ($08),Y
01224  171E  D0 16              BNE XX0F36
01225  1720  88                 DEY 
01226  1721  10 F6              BPL XX0F19
01227  1723  8A                 TXA 
01228  1724  0A                 ASL A
01229  1725  AA                 TAX 
01230  1726  BD 11 28           LDA XX2011,X
01231  1729  85 08              STA $08
01232  172B  BD 12 28           LDA XX2012,X
01233  172E  85 09              STA $09
01234  1730  AD 74 10           LDA XX0874
01235  1733  6C 08 00           JMP ($0008)
01236  1736              ;********************************
01237  1736  A5 08       XX0F36 LDA $08
01238  1738  18                 CLC 
01239  1739  69 03              ADC #$03
01240  173B  85 08              STA $08
01241  173D  90 02              BCC XX0F41
01242  173F  E6 09              INC $09
01243  1741  CA          XX0F41 DEX 
01244  1742  10 D3              BPL XX0F17
01245  1744  4C A1 1D           JMP XX15A1
01246  1747              ;********************************
01247  1747  A9 01       WW0F47 LDA #$01
01248  1749                                     ;BIT $03A9
01249  1749  2C          BB0F49 .BYTE $2C
01250  174A  A9          BB0F4A .BYTE $A9       ; LDA 3$03
01251  174B  03                 .BYTE $03
01252  174C              ;
01253  174C                                     ;BIT $02A9
01254  174C  2C          BB0F4C .BYTE $2C
01255  174D  A9          BB0F4D .BYTE $A9       ; LDA #$02
01256  174E  02                 .BYTE $02
01257  174F              ;
01258  174F  8D 65 10           STA XX0865
01259  1752  A0 00              LDY #$00
01260  1754  8C 5A 10           STY XX085A
01261  1757  A8                 TAY 
01262  1758  C0 03              CPY #$03
01263  175A  D0 01              BNE XX0F5D
01264  175C  88                 DEY 
01265  175D  8C 7A 10    XX0F5D STY XX087A
01266  1760  20 D1 1D           JSR XX15D1
01267  1763  B0 08              BCS XX0F6D






ASSEMBLERP64......PAGE 0025

LINE# LOC   CODE        LINE


01268  1765  AE 6A 10           LDX XX086A
01269  1768  A9 07              LDA #$07
01270  176A  4C C8 1D           JMP XX15C8
01271  176D              ;********************************
01272  176D  8C 7A 10    XX0F6D STY XX087A
01273  1770  AE 69 10    XX0F70 LDX XX0869
01274  1773  20 BC 1E           JSR XX16BC
01275  1776  CE 57 10           DEC XX0857
01276  1779  30 35              BMI XX0FB0
01277  177B  F0 03              BEQ XX0F80
01278  177D  4C 2B 18           JMP XX102B
01279  1780              ;********************************
01280  1780  A9 01       XX0F80 LDA #$01
01281  1782  8D 71 10           STA XX0871
01282  1785  C9 01       XX0F85 CMP #$01
01283  1787  D0 09              BNE XX0F92
01284  1789  AC 65 10           LDY XX0865
01285  178C  8C 7A 10           STY XX087A
01286  178F  4C 95 17           JMP XX0F95
01287  1792              ;********************************
01288  1792  AC 7A 10    XX0F92 LDY XX087A
01289  1795  AD 71 10    XX0F95 LDA XX0871
01290  1798  AE 69 10           LDX XX0869
01291  179B  20 68 23           JSR XX1B68
01292  179E  A0 00              LDY #$00
01293  17A0  8C 5A 10           STY XX085A
01294  17A3  AC 7A 10           LDY XX087A
01295  17A6  C0 03              CPY #$03
01296  17A8  D0 59              BNE XX1003
01297  17AA  CE 7A 10           DEC XX087A
01298  17AD  4C 03 18           JMP XX1003
01299  17B0              ;********************************
01300  17B0  A9 04       XX0FB0 LDA #$04
01301  17B2  8D 71 10           STA XX0871
01302  17B5  AE 65 10           LDX XX0865
01303  17B8  E0 03              CPX #$03
01304  17BA  D0 0C              BNE XX0FC8
01305  17BC  AD 6C 10           LDA XX086C
01306  17BF  AC 5A 10           LDY XX085A
01307  17C2  20 90 30           JSR XX2890
01308  17C5  EE 5A 10           INC XX085A
01309  17C8  AD 6D 10    XX0FC8 LDA XX086D
01310  17CB  AC 5A 10           LDY XX085A
01311  17CE  20 90 30           JSR XX2890
01312  17D1  EE 5A 10           INC XX085A
01313  17D4  AE 65 10           LDX XX0865
01314  17D7  E0 02              CPX #$02
01315  17D9  D0 0C              BNE XX0FE7
01316  17DB  AD 6C 10           LDA XX086C
01317  17DE  AC 5A 10           LDY XX085A
01318  17E1  20 90 30           JSR XX2890
01319  17E4  EE 5A 10           INC XX085A
01320  17E7  AD 75 10    XX0FE7 LDA XX0875
01321  17EA  29 09              AND #$09
01322  17EC  D0 97              BNE XX0F85






ASSEMBLERP64......PAGE 0026

LINE# LOC   CODE        LINE


01323  17EE  E0 01              CPX #$01
01324  17F0  D0 05              BNE XX0FF7
01325  17F2  AD 6C 10           LDA XX086C
01326  17F5  D0 8E              BNE XX0F85
01327  17F7  A9 00       XX0FF7 LDA #$00
01328  17F9  AA                 TAX 
01329  17FA  AC 7A 10           LDY XX087A
01330  17FD  8D 5A 10           STA XX085A
01331  1800  20 68 23           JSR XX1B68
01332  1803  20 35 1E    XX1003 JSR XX1635
01333  1806  B0 03              BCS XX100B
01334  1808              ;SELF MOD CODE
01335  1808              ;       JMP XX15CB
01336  1808  4C          XX1008 .BYTE $4C
01337  1809  CB          XX1009 .BYTE <XX15CB   ;$CB
01338  180A  1D          XX100A .BYTE >XX15CB   ;$15
01339  180B              ;********************************
01340  180B  BD 80 10    XX100B LDA XX0880,X
01341  180E  E8                 INX 
01342  180F  8E 6E 10           STX XX086E
01343  1812  EC 77 10           CPX XX0877
01344  1815  F0 05              BEQ XX101C
01345  1817  90 03              BCC XX101C
01346  1819  4C 9C 1D           JMP XX159C
01347  181C              ;********************************
01348  181C  C9 2C       XX101C CMP #$2C        ;','
01349  181E  D0 E3              BNE XX1003
01350  1820  20 D1 1D           JSR XX15D1
01351  1823  B0 03              BCS XX1028
01352  1825  4C 9C 1D           JMP XX159C
01353  1828              ;********************************
01354  1828  4C 70 17    XX1028 JMP XX0F70
01355  182B              ;********************************
01356  182B  BD 80 10    XX102B LDA XX0880,X
01357  182E  C9 27              CMP #$27        ;'''
01358  1830  F0 10              BEQ XX1042
01359  1832  A9 13       XX1032 LDA #$13
01360  1834  AC 7B 10           LDY XX087B
01361  1837  20 68 23           JSR XX1B68
01362  183A  A0 00              LDY #$00
01363  183C  8C 5A 10           STY XX085A
01364  183F  4C 03 18           JMP XX1003
01365  1842              ;********************************
01366  1842  EC 69 10    XX1042 CPX XX0869
01367  1845  D0 EB              BNE XX1032
01368  1847  AC 65 10           LDY XX0865
01369  184A  C0 02              CPY #$02
01370  184C  B0 E4              BCS XX1032
01371  184E  8E 6E 10           STX XX086E
01372  1851  A0 00              LDY #$00
01373  1853  EE 6E 10    XX1053 INC XX086E
01374  1856  AE 6E 10           LDX XX086E
01375  1859  EC 77 10           CPX XX0877
01376  185C  F0 02              BEQ XX1060
01377  185E  B0 45              BCS XX10A5






ASSEMBLERP64......PAGE 0027

LINE# LOC   CODE        LINE


01378  1860  BD 80 10    XX1060 LDA XX0880,X
01379  1863  C9 27              CMP #$27        ;'''
01380  1865  D0 14              BNE XX107B
01381  1867  EE 6E 10           INC XX086E
01382  186A  AE 6E 10           LDX XX086E
01383  186D  EC 77 10           CPX XX0877
01384  1870  F0 02              BEQ XX1074
01385  1872  B0 22              BCS XX1096
01386  1874  BD 80 10    XX1074 LDA XX0880,X
01387  1877  C9 27              CMP #$27        ;'''
01388  1879  D0 1B              BNE XX1096
01389  187B  48          XX107B PHA 
01390  187C  29 7F              AND #$7F
01391  187E  C9 20              CMP #$20        ;' '
01392  1880  90 04              BCC XX1086
01393  1882  C9 60              CMP #$60
01394  1884  90 04              BCC XX108A
01395  1886  68          XX1086 PLA 
01396  1887  A9 00              LDA #$00
01397  1889  48                 PHA 
01398  188A  68          XX108A PLA 
01399  188B  AC 5A 10           LDY XX085A
01400  188E  20 90 30           JSR XX2890
01401  1891  EE 5A 10           INC XX085A
01402  1894  D0 BD              BNE XX1053
01403  1896  AC 5A 10    XX1096 LDY XX085A
01404  1899  A9 00              LDA #$00
01405  189B  8D 5A 10           STA XX085A
01406  189E  AA                 TAX 
01407  189F  20 68 23           JSR XX1B68
01408  18A2  4C 03 18           JMP XX1003
01409  18A5              ;********************************
01410  18A5  AC 5A 10    XX10A5 LDY XX085A
01411  18A8  A9 07              LDA #$07
01412  18AA  4C C8 1D           JMP XX15C8
01413  18AD              ;********************************
01414  18AD  20 D1 1D    XX10AD JSR XX15D1
01415  18B0  B0 03              BCS XX10B5
01416  18B2  4C C4 1D           JMP XX15C4
01417  18B5              ;********************************
01418  18B5  AE 69 10    XX10B5 LDX XX0869
01419  18B8  A9 03              LDA #$03
01420  18BA  8D 56 10           STA XX0856
01421  18BD  20 8F 1E           JSR XX168F
01422  18C0  B0 03              BCS XX10C5
01423  18C2  4C A1 1D           JMP XX15A1
01424  18C5              ;********************************
01425  18C5              ; CODE GENERATION DIRECTIVES
01426  18C5              ;********************************
01427  18C5  A9 6C       XX10C5 LDA #<ZZ206C    ;#$6C
01428  18C7  85 08              STA $08
01429  18C9  A9 28              LDA #>ZZ206C    ;#$20      ;' '
01430  18CB  85 09              STA $09
01431  18CD  A2 0C              LDX #$0C
01432  18CF  4C 17 17           JMP XX0F17






ASSEMBLERP64......PAGE 0028

LINE# LOC   CODE        LINE


01433  18D2              ;********************************
01434  18D2  29 7F       ZZ10D2 AND #$7F
01435  18D4              ;
01436  18D4                                     ;BIT $8009
01437  18D4  2C          BB10D4 .BYTE $2C
01438  18D5  09          BB10D5 .BYTE $09       ; ORA #$80
01439  18D6  80                 .BYTE $80
01440  18D7              ;
01441  18D7                                     ;BIT $4009
01442  18D7  2C          BB10D7 .BYTE $2C
01443  18D8  09          BB10D8 .BYTE $09       ; ORA #$40
01444  18D9  40                 .BYTE $40
01445  18DA              ;
01446  18DA                                     ;BIT $BF29
01447  18DA  2C          BB10DA .BYTE $2C
01448  18DB  29          BB10DB .BYTE $29       ;AND #$BF
01449  18DC  BF                 .BYTE $BF
01450  18DD              ;
01451  18DD                                     ;BIT $DF29
01452  18DD  2C          BB10DD .BYTE $2C
01453  18DE  29          BB10DE .BYTE $29       ; AND #$DF
01454  18DF  DF                 .BYTE $DF
01455  18E0              ;
01456  18E0                                     ;BIT XX2009
01457  18E0  2C          BB10E0 .BYTE $2C
01458  18E1  09          BB10E1 .BYTE $09       ; ORA #$20
01459  18E2  20                 .BYTE $20
01460  18E3              ;
01461  18E3                                     ;BIT XX1009
01462  18E3  2C          BB10E3 .BYTE $2C
01463  18E4  09          BB10E4 .BYTE $09       ; ORA #$10
01464  18E5  10                 .BYTE $10
01465  18E6              ;
01466  18E6                                     ;BIT $EF29
01467  18E6  2C          BB10E6 .BYTE $2C
01468  18E7  29          BB10E7 .BYTE $29       ; AND #$EF
01469  18E8  EF                 .BYTE $EF
01470  18E9              ;
01471  18E9                                     ;BIT XX0809
01472  18E9                                     ;BIT BASIC-3
01473  18E9  2C          BB10E9 .BYTE $2C
01474  18EA  09          BB10EA .BYTE $09       ; ASL #$09
01475  18EB  08                 .BYTE $08
01476  18EC              ;
01477  18EC                                     ;BIT $F729
01478  18EC  2C          BB10EC .BYTE $2C
01479  18ED  29          BB10ED .BYTE $29       ; AND #$F7
01480  18EE  F7                 .BYTE $F7
01481  18EF              ;
01482  18EF                                     ;BIT $0409
01483  18EF  2C          BB10EF .BYTE $2C
01484  18F0  09          BB10F0 .BYTE $09       ; ORA #$04
01485  18F1  04                 .BYTE $04
01486  18F2              ;
01487  18F2                                     ;BIT $FB29






ASSEMBLERP64......PAGE 0029

LINE# LOC   CODE        LINE


01488  18F2  2C          BB10F2 .BYTE $2C
01489  18F3  29          BB10F3 .BYTE $29       ; AND #$FB
01490  18F4  FB                 .BYTE $FB
01491  18F5              ;
01492  18F5  8D 74 10           STA XX0874
01493  18F8  20 35 1E           JSR XX1635
01494  18FB  B0 03              BCS XX1100
01495  18FD  4C CB 1D           JMP XX15CB
01496  1900              ;********************************
01497  1900  BD 80 10    XX1100 LDA XX0880,X
01498  1903  C9 2C              CMP #$2C        ;','
01499  1905  F0 03              BEQ XX110A
01500  1907  4C CB 1D           JMP XX15CB
01501  190A              ;********************************
01502  190A  E8          XX110A INX 
01503  190B  8E 6E 10           STX XX086E
01504  190E  4C AD 18           JMP XX10AD
01505  1911              ;********************************
01506  1911  20 D1 1D    WW1111 JSR XX15D1
01507  1914  B0 03              BCS XX1119
01508  1916  AE 5A 10           LDX XX085A
01509  1919  A9 CC       XX1119 LDA #$CC
01510  191B  A0 00              LDY #$00
01511  191D  4C C8 1D           JMP XX15C8
01512  1920              ;********************************
01513  1920  20 D1 1D    WW1120 JSR XX15D1
01514  1923  90 07              BCC XX112C
01515  1925  BD 80 10           LDA XX0880,X
01516  1928  C9 27              CMP #$27        ;'''
01517  192A  F0 02              BEQ XX112E
01518  192C  A2 00       XX112C LDX #$00
01519  192E  A9 CB       XX112E LDA #$CB
01520  1930  A0 00              LDY #$00
01521  1932  4C C8 1D           JMP XX15C8
01522  1935              ;********************************
01523  1935              ;XX1135 BIT XX087F
01524  1935  2C          XX1135 .BYTE $2C
01525  1936  7F          BB1136 .BYTE <XX087F   ;$7F ; RRA #$08
01526  1937  10                 .BYTE >XX087F   ;$08
01527  1938              ;
01528  1938  70 22              BVS XX115C
01529  193A  A2 FF              LDX #$FF
01530  193C  9A                 TXS 
01531  193D  AE 66 10           LDX XX0866
01532  1940  F0 0F              BEQ XX1151
01533  1942  A9 02              LDA #$02
01534  1944  20 C3 FF           JSR CLOSE
01535  1947  A2 00              LDX #$00
01536  1949  8A                 TXA 
01537  194A  A8                 TAY 
01538  194B  20 68 23           JSR XX1B68
01539  194E  4C 6E 25           JMP XX1D6E
01540  1951              ;********************************
01541  1951  EE 66 10    XX1151 INC XX0866
01542  1954  A9 02              LDA #$02






ASSEMBLERP64......PAGE 0030

LINE# LOC   CODE        LINE


01543  1956  20 C3 FF           JSR CLOSE
01544  1959  4C 76 13           JMP XX0B76
01545  195C              ;********************************
01546  195C  A9 03       XX115C LDA #$03
01547  195E  20 C3 FF           JSR CLOSE
01548  1961  AD 7F 10           LDA XX087F
01549  1964  29 BF              AND #$BF
01550  1966  8D 7F 10           STA XX087F
01551  1969  A2 00       XX1169 LDX #$00
01552  196B  8E 39 10           STX XX0839
01553  196E  A0 00              LDY #$00
01554  1970  A9 CD              LDA #$CD
01555  1972  EE 72 10           INC XX0872
01556  1975  20 68 23           JSR XX1B68
01557  1978  CE 72 10           DEC XX0872
01558  197B  A9 0D              LDA #$0D
01559  197D  8D 4B 10           STA XX084B
01560  1980  4C CB 1D           JMP XX15CB
01561  1983              ;********************************
01562  1983                                     ;BIT XX087F
01563  1983  2C          BB1183 .BYTE $2C
01564  1984  7F          BB1184 .BYTE <XX087F   ;$7F ; RRA #$08
01565  1985  10                 .BYTE >XX087F   ;$08
01566  1986  50 08              BVC XX1190
01567  1988  A9 03              LDA #$03
01568  198A  20 C3 FF           JSR CLOSE
01569  198D  4C 02 1A           JMP XX1202
01570  1990              ;********************************
01571  1990  A9 02       XX1190 LDA #$02
01572  1992  20 C3 FF           JSR CLOSE
01573  1995  20 A9 19           JSR XX11A9
01574  1998  A9 02              LDA #$02
01575  199A  A8                 TAY 
01576  199B  A2 08              LDX #$08
01577  199D  20 BA FF           JSR SETLFS
01578  19A0  20 C0 FF           JSR OPEN
01579  19A3  20 FE 2F           JSR XX27FE
01580  19A6  4C 69 19           JMP XX1169
01581  19A9              ;********************************
01582  19A9  20 D1 1D    XX11A9 JSR XX15D1
01583  19AC  90 24              BCC XX11D2
01584  19AE  A0 00              LDY #$00
01585  19B0  BD 80 10    XX11B0 LDA XX0880,X
01586  19B3  C9 20              CMP #$20        ;' '
01587  19B5  F0 10              BEQ XX11C7
01588  19B7  99 08 11           STA XX0908,Y
01589  19BA  EC 77 10           CPX XX0877
01590  19BD  F0 08              BEQ XX11C7
01591  19BF  C8                 INY 
01592  19C0  E8                 INX 
01593  19C1  C0 12              CPY #$12
01594  19C3  D0 EB              BNE XX11B0
01595  19C5  F0 0B              BEQ XX11D2
01596  19C7  A9 0D       XX11C7 LDA #$0D
01597  19C9  C8                 INY 






ASSEMBLERP64......PAGE 0031

LINE# LOC   CODE        LINE


01598  19CA  8C 4C 10           STY XX084C
01599  19CD  8D 4B 10           STA XX084B
01600  19D0  D0 0A              BNE XX11DC
01601  19D2              ; PRINT FILENAME ERROR
01602  19D2  A9 2B       XX11D2 LDA #>AA2323    ;#$23      ;'#'
01603  19D4  A0 23              LDY #<AA2323    ;#$23      ;'#'
01604  19D6  20 68 14           JSR XX0C68
01605  19D9  4C AD 2F           JMP XX27AD
01606  19DC              ;********************************
01607  19DC  AE 4C 10    XX11DC LDX XX084C
01608  19DF  A9 2C              LDA #$2C        ;','
01609  19E1  9D 08 11           STA XX0908,X
01610  19E4  E8                 INX 
01611  19E5  A9 53              LDA #$53        ;'S'
01612  19E7  9D 08 11           STA XX0908,X
01613  19EA  E8                 INX 
01614  19EB  8A                 TXA 
01615  19EC  A0 11              LDY #>XX0908    ;#$09
01616  19EE  A2 08              LDX #<XX0908    ;#$08
01617  19F0  4C BD FF           JMP SETNAM
01618  19F3              ;********************************
01619  19F3                                     ;BIT XX087F
01620  19F3  2C          BB11F3 .BYTE $2C
01621  19F4  7F          BB11F4 .BYTE <XX087F   ;$7F ;RRA #$08
01622  19F5  10                 .BYTE >XX087F   ;$08
01623  19F6  50 0A              BVC XX1202
01624  19F8              ;********************************
01625  19F8              ; PRINT .LIB ERROR
01626  19F8              ;********************************
01627  19F8  A9 2B              LDA #>AA2334    ;#$23      ;'#'
01628  19FA  A0 34              LDY #<AA2334    ;#$34      ;'4'
01629  19FC  20 68 14           JSR XX0C68
01630  19FF  4C AD 2F           JMP XX27AD
01631  1A02              ;********************************
01632  1A02  20 A9 19    XX1202 JSR XX11A9
01633  1A05  A9 03              LDA #$03
01634  1A07  A8                 TAY 
01635  1A08  A2 08              LDX #$08
01636  1A0A  20 BA FF           JSR SETLFS
01637  1A0D  20 C0 FF           JSR OPEN
01638  1A10  20 FE 2F           JSR XX27FE
01639  1A13  A9 40              LDA #$40        ;'@'
01640  1A15  0D 7F 10           ORA XX087F
01641  1A18  8D 7F 10           STA XX087F
01642  1A1B  4C 69 19           JMP XX1169
01643  1A1E              ;********************************
01644  1A1E  A9 FF       WW121E LDA #$FF
01645  1A20              ;ERR - ASSEMBLES AS ZERO PAGE
01646  1A20              ;       BIT $00A9
01647  1A20  2C          BB1220 .BYTE $2C
01648  1A21  A9          BB1221 .BYTE $A9       ; LDA #$00
01649  1A22  00                 .BYTE $00
01650  1A23  8D 75 11           STA XX0975
01651  1A26  20 D1 1D           JSR XX15D1
01652  1A29  90 57              BCC XX1282






ASSEMBLERP64......PAGE 0032

LINE# LOC   CODE        LINE


01653  1A2B  8C 7A 10           STY XX087A
01654  1A2E  AE 69 10           LDX XX0869
01655  1A31  20 BC 1E           JSR XX16BC
01656  1A34  CE 57 10           DEC XX0857
01657  1A37  30 05              BMI XX123E
01658  1A39  F0 3C              BEQ XX1277
01659  1A3B  4C 85 1A           JMP XX1285
01660  1A3E              ;********************************
01661  1A3E  8E 6E 10    XX123E STX XX086E
01662  1A41  20 D1 1D           JSR XX15D1
01663  1A44  90 3C              BCC XX1282
01664  1A46  C9 3C              CMP #$3C        ;'<'
01665  1A48  F0 03              BEQ XX124D
01666  1A4A  4C 82 1A           JMP XX1282
01667  1A4D              ;********************************
01668  1A4D  A0 FF       XX124D LDY #$FF
01669  1A4F  AD 6C 10           LDA XX086C
01670  1A52  0D 6D 10           ORA XX086D
01671  1A55  F0 02              BEQ XX1259
01672  1A57  A0 00              LDY #$00
01673  1A59  98          XX1259 TYA 
01674  1A5A  4D 75 11           EOR XX0975
01675  1A5D  D0 15              BNE XX1274
01676  1A5F  20 8F 1A    XX125F JSR XX128F
01677  1A62  C9 0D              CMP #$0D
01678  1A64  D0 F9              BNE XX125F
01679  1A66  20 8F 1A           JSR XX128F
01680  1A69  C9 3E              CMP #$3E        ;'>'
01681  1A6B  D0 F2              BNE XX125F
01682  1A6D  20 8F 1A    XX126D JSR XX128F
01683  1A70  C9 0D              CMP #$0D
01684  1A72  D0 F9              BNE XX126D
01685  1A74  4C CB 1D    XX1274 JMP XX15CB
01686  1A77              ;********************************
01687  1A77  AD 66 10    XX1277 LDA XX0866
01688  1A7A  D0 03              BNE XX127F
01689  1A7C  A9 0B              LDA #$0B
01690  1A7E              ;********************************
01691  1A7E  2C                 .BYTE $2C
01692  1A7F              ;********************************
01693  1A7F  A9 01       XX127F LDA #$01
01694  1A81              ;********************************
01695  1A81  2C                 .BYTE $2C
01696  1A82              ;********************************
01697  1A82  A9 07       XX1282 LDA #$07
01698  1A84              ;********************************
01699  1A84  2C                 .BYTE $2C
01700  1A85              ;********************************
01701  1A85  A9 0D       XX1285 LDA #$0D
01702  1A87  AE 6A 10           LDX XX086A
01703  1A8A  A0 00              LDY #$00
01704  1A8C  4C C8 1D           JMP XX15C8
01705  1A8F              ;********************************
01706  1A8F  20 5F 2E    XX128F JSR XX265F
01707  1A92  C9 00              CMP #$00






ASSEMBLERP64......PAGE 0033

LINE# LOC   CODE        LINE


01708  1A94  F0 01              BEQ XX1297
01709  1A96  60                 RTS 
01710  1A97              ;********************************
01711  1A97  4C 35 19    XX1297 JMP XX1135
01712  1A9A              ;********************************
01713  1A9A  A0 00       XX129A LDY #$00
01714  1A9C  8C 5D 10           STY XX085D
01715  1A9F  8C 70 10           STY XX0870
01716  1AA2  8C 5E 10           STY XX085E
01717  1AA5  AD 52 10           LDA XX0852
01718  1AA8  C9 14              CMP #$14
01719  1AAA  D0 10              BNE XX12BC
01720  1AAC  A0 00       XX12AC LDY #$00
01721  1AAE  AD 51 10           LDA XX0851
01722  1AB1  20 90 30           JSR XX2890
01723  1AB4  A2 00              LDX #$00
01724  1AB6  A0 01              LDY #$01
01725  1AB8  8A                 TXA 
01726  1AB9  4C C8 1D           JMP XX15C8
01727  1ABC              ;********************************
01728  1ABC  C9 15       XX12BC CMP #$15
01729  1ABE  D0 0A              BNE XX12CA
01730  1AC0  A9 0E              LDA #$0E
01731  1AC2  8D 52 10           STA XX0852
01732  1AC5  A9 07              LDA #$07
01733  1AC7  8D 71 10           STA XX0871
01734  1ACA  AD 6A 10    XX12CA LDA XX086A
01735  1ACD  8D 6E 10           STA XX086E
01736  1AD0  EE 6E 10           INC XX086E
01737  1AD3  20 D1 1D           JSR XX15D1
01738  1AD6  B0 08              BCS XX12E0
01739  1AD8  A9 18              LDA #$18
01740  1ADA  8D 71 10           STA XX0871
01741  1ADD  4C 9C 1D           JMP XX159C
01742  1AE0              ;********************************
01743  1AE0  BD 80 10    XX12E0 LDA XX0880,X
01744  1AE3  C9 3B              CMP #$3B        ;';'
01745  1AE5  D0 03              BNE XX12EA
01746  1AE7  4C A1 1D           JMP XX15A1
01747  1AEA              ;********************************
01748  1AEA  C9 41       XX12EA CMP #$41        ;'A'
01749  1AEC  D0 28              BNE XX1316
01750  1AEE  EC 77 10           CPX XX0877
01751  1AF1  F0 07              BEQ XX12FA
01752  1AF3  BC 81 10           LDY XX0881,X
01753  1AF6  C0 20              CPY #$20        ;' '
01754  1AF8  D0 1C              BNE XX1316
01755  1AFA  AC 52 10    XX12FA LDY XX0852
01756  1AFD  B9 49 29           LDA XX2149,Y
01757  1B00  30 0A              BMI XX130C
01758  1B02  18                 CLC 
01759  1B03  6D 51 10           ADC XX0851
01760  1B06  8D 51 10           STA XX0851
01761  1B09  4C AC 1A           JMP XX12AC
01762  1B0C              ;********************************






ASSEMBLERP64......PAGE 0034

LINE# LOC   CODE        LINE


01763  1B0C  AE 69 10    XX130C LDX XX0869
01764  1B0F  A0 03              LDY #$03
01765  1B11  A9 05              LDA #$05
01766  1B13  4C C8 1D           JMP XX15C8
01767  1B16              ;********************************
01768  1B16  C9 23       XX1316 CMP #$23        ;'#'
01769  1B18  D0 05              BNE XX131F
01770  1B1A  A9 0A              LDA #$0A
01771  1B1C  4C 25 1B           JMP XX1325
01772  1B1F              ;********************************
01773  1B1F  C9 28       XX131F CMP #$28        ;'('
01774  1B21  D0 13              BNE XX1336
01775  1B23  A9 05              LDA #$05
01776  1B25  8D 5D 10    XX1325 STA XX085D
01777  1B28  E8                 INX 
01778  1B29  EE 69 10           INC XX0869
01779  1B2C  EC 77 10           CPX XX0877
01780  1B2F  F0 05              BEQ XX1336
01781  1B31  90 03              BCC XX1336
01782  1B33  4C 9C 1D           JMP XX159C
01783  1B36              ;********************************
01784  1B36  20 BC 1E    XX1336 JSR XX16BC
01785  1B39  8E 60 10           STX XX0860
01786  1B3C  A9 13              LDA #$13
01787  1B3E  8D 71 10           STA XX0871
01788  1B41  CE 57 10           DEC XX0857
01789  1B44  30 58              BMI XX139E
01790  1B46  F0 4E              BEQ XX1396
01791  1B48  AD 5D 10           LDA XX085D
01792  1B4B  C9 0A              CMP #$0A
01793  1B4D  F0 03              BEQ XX1352
01794  1B4F  4C AD 1D           JMP XX15AD
01795  1B52              ;********************************
01796  1B52  BD 80 10    XX1352 LDA XX0880,X
01797  1B55  C9 27              CMP #$27        ;'''
01798  1B57  F0 03              BEQ XX135C
01799  1B59  4C A7 1D           JMP XX15A7
01800  1B5C              ;********************************
01801  1B5C  8A          XX135C TXA 
01802  1B5D  A8                 TAY 
01803  1B5E  E8                 INX 
01804  1B5F  EC 77 10           CPX XX0877
01805  1B62  F0 05              BEQ XX1369
01806  1B64  90 03              BCC XX1369
01807  1B66  4C 9C 1D           JMP XX159C
01808  1B69              ;********************************
01809  1B69  BD 80 10    XX1369 LDA XX0880,X
01810  1B6C  C9 20              CMP #$20        ;' '
01811  1B6E  90 04              BCC XX1374
01812  1B70  C9 60              CMP #$60
01813  1B72  90 02              BCC XX1376
01814  1B74  A9 00       XX1374 LDA #$00
01815  1B76  8D 6D 10    XX1376 STA XX086D
01816  1B79  E8                 INX 
01817  1B7A  EC 77 10           CPX XX0877






ASSEMBLERP64......PAGE 0035

LINE# LOC   CODE        LINE


01818  1B7D  F0 02              BEQ XX1381
01819  1B7F  B0 1D              BCS XX139E
01820  1B81  BD 80 10    XX1381 LDA XX0880,X
01821  1B84  C9 20              CMP #$20        ;' '
01822  1B86  F0 16              BEQ XX139E
01823  1B88  C9 27              CMP #$27        ;'''
01824  1B8A  F0 12              BEQ XX139E
01825  1B8C  98                 TYA 
01826  1B8D  AA                 TAX 
01827  1B8E  A0 03              LDY #$03
01828  1B90  AD 71 10           LDA XX0871
01829  1B93  4C C8 1D           JMP XX15C8
01830  1B96              ;********************************
01831  1B96  EE 5E 10    XX1396 INC XX085E
01832  1B99  A9 02              LDA #$02
01833  1B9B  8D 70 10           STA XX0870
01834  1B9E  20 35 1E    XX139E JSR XX1635
01835  1BA1  90 58              BCC XX13FB
01836  1BA3  BD 80 10           LDA XX0880,X
01837  1BA6  C9 29              CMP #$29        ;')'
01838  1BA8  D0 18              BNE XX13C2
01839  1BAA  EE 5D 10           INC XX085D
01840  1BAD  EE 5D 10           INC XX085D
01841  1BB0  AD 51 10           LDA XX0851
01842  1BB3  C9 4C              CMP #$4C        ;'L'
01843  1BB5  F0 4B              BEQ XX1402
01844  1BB7  E8                 INX 
01845  1BB8  EC 77 10           CPX XX0877
01846  1BBB  F0 05              BEQ XX13C2
01847  1BBD  90 03              BCC XX13C2
01848  1BBF  4C 9C 1D           JMP XX159C
01849  1BC2              ;********************************
01850  1BC2  BD 80 10    XX13C2 LDA XX0880,X
01851  1BC5  C9 2C              CMP #$2C        ;','
01852  1BC7  D0 12              BNE XX13DB
01853  1BC9  AD 51 10           LDA XX0851
01854  1BCC  C9 4C              CMP #$4C        ;'L'
01855  1BCE  F0 3B              BEQ XX140B
01856  1BD0  E8                 INX 
01857  1BD1  EC 77 10           CPX XX0877
01858  1BD4  F0 05              BEQ XX13DB
01859  1BD6  90 03              BCC XX13DB
01860  1BD8  4C 9C 1D           JMP XX159C
01861  1BDB              ;********************************
01862  1BDB  BD 80 10    XX13DB LDA XX0880,X
01863  1BDE  C9 58              CMP #$58        ;'X'
01864  1BE0  D0 06              BNE XX13E8
01865  1BE2  EE 5D 10           INC XX085D
01866  1BE5  4C 34 1C           JMP XX1434
01867  1BE8              ;********************************
01868  1BE8  C9 59       XX13E8 CMP #$59        ;'Y'
01869  1BEA  F0 07              BEQ XX13F3
01870  1BEC  A0 03              LDY #$03
01871  1BEE  A9 12              LDA #$12
01872  1BF0  4C C8 1D           JMP XX15C8






ASSEMBLERP64......PAGE 0036

LINE# LOC   CODE        LINE


01873  1BF3              ;********************************
01874  1BF3  EE 5D 10    XX13F3 INC XX085D
01875  1BF6  EE 5D 10           INC XX085D
01876  1BF9  D0 39              BNE XX1434
01877  1BFB  AD 51 10    XX13FB LDA XX0851
01878  1BFE  C9 4C              CMP #$4C        ;'L'
01879  1C00  D0 32              BNE XX1434
01880  1C02  AD 5D 10    XX1402 LDA XX085D
01881  1C05  F0 1B              BEQ XX1422
01882  1C07  C9 07              CMP #$07
01883  1C09  F0 08              BEQ XX1413
01884  1C0B  A9 18       XX140B LDA #$18
01885  1C0D  8D 71 10           STA XX0871
01886  1C10  4C A7 1D           JMP XX15A7
01887  1C13              ;********************************
01888  1C13  E8          XX1413 INX 
01889  1C14  EC 77 10           CPX XX0877
01890  1C17  30 02              BMI XX141B
01891  1C19  B0 07              BCS XX1422
01892  1C1B  BD 80 10    XX141B LDA XX0880,X
01893  1C1E  C9 20              CMP #$20        ;' '
01894  1C20  D0 E9              BNE XX140B
01895  1C22  AD 5D 10    XX1422 LDA XX085D
01896  1C25  D0 03              BNE XX142A
01897  1C27  4C 2C 1C           JMP XX142C
01898  1C2A              ;********************************
01899  1C2A  A9 20       XX142A LDA #$20        ;' '
01900  1C2C  A0 02       XX142C LDY #$02
01901  1C2E  8C 70 10           STY XX0870
01902  1C31  4C 32 1D           JMP XX1532
01903  1C34              ;********************************
01904  1C34  AD 5E 10    XX1434 LDA XX085E
01905  1C37  F0 03              BEQ XX143C
01906  1C39  4C D1 1C           JMP XX14D1
01907  1C3C              ;********************************
01908  1C3C  AD 52 10    XX143C LDA XX0852
01909  1C3F  C9 0E              CMP #$0E
01910  1C41  D0 47              BNE XX148A
01911  1C43  18                 CLC 
01912  1C44  A5 06              LDA $06
01913  1C46  69 02              ADC #$02
01914  1C48  8D 7C 10           STA XX087C
01915  1C4B  A5 07              LDA $07
01916  1C4D  69 00              ADC #$00
01917  1C4F  8D 7B 10           STA XX087B
01918  1C52  AD 6D 10           LDA XX086D
01919  1C55  38                 SEC 
01920  1C56  ED 7C 10           SBC XX087C
01921  1C59  8D 6D 10           STA XX086D
01922  1C5C  A8                 TAY 
01923  1C5D  AD 6C 10           LDA XX086C
01924  1C60  ED 7B 10           SBC XX087B
01925  1C63  8D 6C 10           STA XX086C
01926  1C66  10 05              BPL XX146D
01927  1C68  98                 TYA 






ASSEMBLERP64......PAGE 0037

LINE# LOC   CODE        LINE


01928  1C69  30 0A              BMI XX1475
01929  1C6B  10 03              BPL XX1470
01930  1C6D  98          XX146D TYA 
01931  1C6E  10 05              BPL XX1475
01932  1C70  A9 17       XX1470 LDA #$17
01933  1C72  8D 71 10           STA XX0871
01934  1C75  AD 6C 10    XX1475 LDA XX086C
01935  1C78  F0 33              BEQ XX14AD
01936  1C7A  C9 FF              CMP #$FF
01937  1C7C  F0 05              BEQ XX1483
01938  1C7E  A9 17              LDA #$17
01939  1C80  8D 71 10           STA XX0871
01940  1C83  A9 00       XX1483 LDA #$00
01941  1C85  8D 6C 10           STA XX086C
01942  1C88  F0 23              BEQ XX14AD
01943  1C8A  AD 5D 10    XX148A LDA XX085D
01944  1C8D  C9 06              CMP #$06
01945  1C8F  90 1C              BCC XX14AD
01946  1C91  C9 09              CMP #$09
01947  1C93  F0 02              BEQ XX1497
01948  1C95  B0 16              BCS XX14AD
01949  1C97  AD 6C 10    XX1497 LDA XX086C
01950  1C9A  D0 07              BNE XX14A3
01951  1C9C  AD 6D 10           LDA XX086D
01952  1C9F  C9 FF              CMP #$FF
01953  1CA1  D0 0A              BNE XX14AD
01954  1CA3  A9 19       XX14A3 LDA #$19
01955  1CA5  8D 71 10           STA XX0871
01956  1CA8  A9 00              LDA #$00
01957  1CAA  8D 6C 10           STA XX086C
01958  1CAD  A9 02       XX14AD LDA #$02
01959  1CAF  8D 70 10           STA XX0870
01960  1CB2  AD 6C 10           LDA XX086C
01961  1CB5  D0 1A              BNE XX14D1
01962  1CB7  A9 01              LDA #$01
01963  1CB9  8D 70 10           STA XX0870
01964  1CBC  AD 5D 10           LDA XX085D
01965  1CBF  18                 CLC 
01966  1CC0  69 02              ADC #$02
01967  1CC2  8D 5D 10           STA XX085D
01968  1CC5  C9 0D       XX14C5 CMP #$0D
01969  1CC7  90 17              BCC XX14E0
01970  1CC9  A9 15              LDA #$15
01971  1CCB  8D 71 10           STA XX0871
01972  1CCE  4C A1 1D           JMP XX15A1
01973  1CD1              ;********************************
01974  1CD1  AD 5D 10    XX14D1 LDA XX085D
01975  1CD4  18                 CLC 
01976  1CD5  69 0D              ADC #$0D
01977  1CD7  8D 5D 10           STA XX085D
01978  1CDA  C9 0F       XX14DA CMP #$0F
01979  1CDC  F0 02              BEQ XX14E0
01980  1CDE  B0 0F              BCS XX14EF
01981  1CE0  A8          XX14E0 TAY 
01982  1CE1  88                 DEY 






ASSEMBLERP64......PAGE 0038

LINE# LOC   CODE        LINE


01983  1CE2  B9 3B 29           LDA XX213B,Y
01984  1CE5  18                 CLC 
01985  1CE6  6D 52 10           ADC XX0852
01986  1CE9  A8                 TAY 
01987  1CEA  B9 4A 29           LDA XX214A,Y
01988  1CED  10 43              BPL XX1532
01989  1CEF  AD 5E 10    XX14EF LDA XX085E
01990  1CF2              ;********************************
01991  1CF2              ;.END
01992  1CF2              ;*=$14F2
01993  1CF2              ;********************************
01994  1CF2  F0 20              BEQ XX1514
01995  1CF4  AD 70 10           LDA XX0870
01996  1CF7  C9 02              CMP #$02
01997  1CF9  F0 08              BEQ XX1503
01998  1CFB  A9 18              LDA #$18
01999  1CFD  8D 71 10           STA XX0871
02000  1D00  4C A1 1D           JMP XX15A1
02001  1D03              ;********************************
02002  1D03  A9 01       XX1503 LDA #$01
02003  1D05  8D 70 10           STA XX0870
02004  1D08  AD 5D 10           LDA XX085D
02005  1D0B  38                 SEC 
02006  1D0C  E9 0B              SBC #$0B
02007  1D0E  8D 5D 10           STA XX085D
02008  1D11  4C C5 1C           JMP XX14C5
02009  1D14              ;********************************
02010  1D14  AD 70 10    XX1514 LDA XX0870
02011  1D17  C9 01              CMP #$01
02012  1D19  F0 08              BEQ XX1523
02013  1D1B  A9 18              LDA #$18
02014  1D1D  8D 71 10           STA XX0871
02015  1D20  4C A1 1D           JMP XX15A1
02016  1D23              ;********************************
02017  1D23  EE 70 10    XX1523 INC XX0870
02018  1D26  AD 5D 10           LDA XX085D
02019  1D29  18                 CLC 
02020  1D2A  69 0B              ADC #$0B
02021  1D2C  8D 5D 10           STA XX085D
02022  1D2F  4C DA 1C           JMP XX14DA
02023  1D32              ;********************************
02024  1D32  18          XX1532 CLC 
02025  1D33  6D 51 10           ADC XX0851
02026  1D36  A0 00              LDY #$00
02027  1D38  20 90 30           JSR XX2890
02028  1D3B  AD 5E 10           LDA XX085E
02029  1D3E  D0 3F              BNE XX157F
02030  1D40  A0 01              LDY #$01
02031  1D42  AD 6D 10           LDA XX086D
02032  1D45  20 90 30           JSR XX2890
02033  1D48  A0 02              LDY #$02
02034  1D4A  AD 70 10           LDA XX0870
02035  1D4D  C9 01              CMP #$01
02036  1D4F  F0 06              BEQ XX1557
02037  1D51  AD 6C 10           LDA XX086C






ASSEMBLERP64......PAGE 0039

LINE# LOC   CODE        LINE


02038  1D54  20 90 30           JSR XX2890
02039  1D57  AD 71 10    XX1557 LDA XX0871
02040  1D5A  C9 17              CMP #$17
02041  1D5C  F0 36              BEQ XX1594
02042  1D5E  C9 19              CMP #$19
02043  1D60  F0 45              BEQ XX15A7
02044  1D62  A9 09              LDA #$09
02045  1D64  2D 75 10           AND XX0875
02046  1D67  D0 4F              BNE XX15B8
02047  1D69  AD 70 10           LDA XX0870
02048  1D6C  C9 01              CMP #$01
02049  1D6E  D0 05              BNE XX1575
02050  1D70  AD 6C 10           LDA XX086C
02051  1D73  D0 43              BNE XX15B8
02052  1D75  A2 00       XX1575 LDX #$00
02053  1D77  AC 70 10           LDY XX0870
02054  1D7A  C8                 INY 
02055  1D7B  8A                 TXA 
02056  1D7C  4C C8 1D           JMP XX15C8
02057  1D7F              ;********************************
02058  1D7F  AC 70 10    XX157F LDY XX0870
02059  1D82  AD 52 10           LDA XX0852
02060  1D85  C9 0E              CMP #$0E
02061  1D87  D0 02              BNE XX158B
02062  1D89  A0 01              LDY #$01
02063  1D8B  AE 69 10    XX158B LDX XX0869
02064  1D8E  C8                 INY 
02065  1D8F  A9 01              LDA #$01
02066  1D91  4C C8 1D           JMP XX15C8
02067  1D94              ;********************************
02068  1D94  AE 69 10    XX1594 LDX XX0869
02069  1D97  A0 02              LDY #$02
02070  1D99  4C C8 1D           JMP XX15C8
02071  1D9C              ;********************************
02072  1D9C  A9 07       XX159C LDA #$07
02073  1D9E  8D 71 10           STA XX0871
02074  1DA1  AE 69 10    XX15A1 LDX XX0869
02075  1DA4  4C B0 1D           JMP XX15B0
02076  1DA7              ;********************************
02077  1DA7  AE 6E 10    XX15A7 LDX XX086E
02078  1DAA  4C B0 1D           JMP XX15B0
02079  1DAD              ;********************************
02080  1DAD  AE 60 10    XX15AD LDX XX0860
02081  1DB0  A0 03       XX15B0 LDY #$03
02082  1DB2  AD 71 10           LDA XX0871
02083  1DB5  4C C8 1D           JMP XX15C8
02084  1DB8              ;********************************
02085  1DB8  AE 69 10    XX15B8 LDX XX0869
02086  1DBB  AC 70 10           LDY XX0870
02087  1DBE  C8                 INY 
02088  1DBF  A9 04              LDA #$04
02089  1DC1  4C C8 1D           JMP XX15C8
02090  1DC4              ;********************************
02091  1DC4  A2 00       XX15C4 LDX #$00
02092  1DC6  8A                 TXA 






ASSEMBLERP64......PAGE 0040

LINE# LOC   CODE        LINE


02093  1DC7  A8                 TAY 
02094  1DC8  20 68 23    XX15C8 JSR XX1B68
02095  1DCB  A2 FF       XX15CB LDX #$FF
02096  1DCD  9A                 TXS 
02097  1DCE  4C AF 14           JMP XX0CAF
02098  1DD1              ;********************************
02099  1DD1  AD 77 10    XX15D1 LDA XX0877
02100  1DD4  C9 FF              CMP #$FF
02101  1DD6  F0 49              BEQ XX1621
02102  1DD8  AE 6E 10           LDX XX086E
02103  1DDB  EC 77 10    XX15DB CPX XX0877
02104  1DDE  F0 02              BEQ XX15E2
02105  1DE0  B0 3F              BCS XX1621
02106  1DE2  BD 80 10    XX15E2 LDA XX0880,X
02107  1DE5  C9 20              CMP #$20        ;' '
02108  1DE7  F0 05              BEQ XX15EE
02109  1DE9  8E 69 10           STX XX0869
02110  1DEC  D0 2D              BNE XX161B
02111  1DEE  E8          XX15EE INX 
02112  1DEF  8E 6E 10           STX XX086E
02113  1DF2  4C DB 1D           JMP XX15DB
02114  1DF5              ;********************************
02115  1DF5  A0 00       XX15F5 LDY #$00
02116  1DF7  8C 6B 10           STY XX086B
02117  1DFA  AE 6E 10           LDX XX086E
02118  1DFD  EC 77 10    XX15FD CPX XX0877
02119  1E00  F0 02              BEQ XX1604
02120  1E02  B0 19              BCS XX161D
02121  1E04  BD 80 10    XX1604 LDA XX0880,X
02122  1E07  C9 20              CMP #$20        ;' '
02123  1E09  F0 08              BEQ XX1613
02124  1E0B  C9 3D              CMP #$3D        ;'='
02125  1E0D  F0 04              BEQ XX1613
02126  1E0F  C9 3B              CMP #$3B        ;';'
02127  1E11  D0 10              BNE XX1623
02128  1E13  C0 00       XX1613 CPY #$00
02129  1E15  D0 17              BNE XX162E
02130  1E17  CA          XX1617 DEX 
02131  1E18  8E 6A 10           STX XX086A
02132  1E1B  38          XX161B SEC 
02133  1E1C  60                 RTS 
02134  1E1D              ;********************************
02135  1E1D  C0 00       XX161D CPY #$00
02136  1E1F  F0 F6              BEQ XX1617
02137  1E21  18          XX1621 CLC 
02138  1E22  60                 RTS 
02139  1E23              ;********************************
02140  1E23  C9 27       XX1623 CMP #$27        ;'''
02141  1E25  D0 07              BNE XX162E
02142  1E27  C8                 INY 
02143  1E28  C0 02              CPY #$02
02144  1E2A  D0 02              BNE XX162E
02145  1E2C  A0 00              LDY #$00
02146  1E2E  E8          XX162E INX 
02147  1E2F  EE 6B 10           INC XX086B






ASSEMBLERP64......PAGE 0041

LINE# LOC   CODE        LINE


02148  1E32  4C FD 1D           JMP XX15FD
02149  1E35              ;********************************
02150  1E35  AE 6E 10    XX1635 LDX XX086E
02151  1E38  EC 77 10    XX1638 CPX XX0877
02152  1E3B  F0 02              BEQ XX163F
02153  1E3D  B0 E2              BCS XX1621
02154  1E3F  BD 80 10    XX163F LDA XX0880,X
02155  1E42  C9 27              CMP #$27        ;'''
02156  1E44  D0 19              BNE XX165F
02157  1E46  E8          XX1646 INX 
02158  1E47  8E 6E 10           STX XX086E
02159  1E4A  EC 77 10           CPX XX0877
02160  1E4D  F0 02              BEQ XX1651
02161  1E4F  B0 D0              BCS XX1621
02162  1E51  BD 80 10    XX1651 LDA XX0880,X
02163  1E54  C9 27              CMP #$27        ;'''
02164  1E56  D0 EE              BNE XX1646
02165  1E58  E8                 INX 
02166  1E59  8E 6E 10           STX XX086E
02167  1E5C  4C 38 1E           JMP XX1638
02168  1E5F              ;********************************
02169  1E5F  BD 80 10    XX165F LDA XX0880,X
02170  1E62  C9 20              CMP #$20        ;' '
02171  1E64  F0 BB              BEQ XX1621
02172  1E66  C9 29              CMP #$29        ;')'
02173  1E68  F0 B1              BEQ XX161B
02174  1E6A  C9 2C              CMP #$2C        ;','
02175  1E6C  F0 AD              BEQ XX161B
02176  1E6E  E8                 INX 
02177  1E6F  8E 6E 10           STX XX086E
02178  1E72  4C 38 1E           JMP XX1638
02179  1E75              ;********************************
02180  1E75  BD 80 10    XX1675 LDA XX0880,X
02181  1E78  C9 41              CMP #$41        ;'A'
02182  1E7A  90 A5              BCC XX1621
02183  1E7C  C9 5B              CMP #$5B        ;'['
02184  1E7E  90 9B              BCC XX161B
02185  1E80  B0 9F              BCS XX1621
02186  1E82  BD 80 10    XX1682 LDA XX0880,X
02187  1E85  C9 30              CMP #$30        ;'0'
02188  1E87  90 98              BCC XX1621
02189  1E89  C9 3A              CMP #$3A        ;':'
02190  1E8B  90 8E              BCC XX161B
02191  1E8D  B0 92              BCS XX1621
02192  1E8F  A0 FF       XX168F LDY #$FF
02193  1E91  C8          XX1691 INY 
02194  1E92  C0 05              CPY #$05
02195  1E94  F0 02              BEQ XX1698
02196  1E96  B0 12              BCS XX16AA
02197  1E98  CC 56 10    XX1698 CPY XX0856
02198  1E9B  90 02              BCC XX169F
02199  1E9D  B0 16              BCS XX16B5
02200  1E9F  20 75 1E    XX169F JSR XX1675
02201  1EA2  B0 08              BCS XX16AC
02202  1EA4  20 82 1E           JSR XX1682






ASSEMBLERP64......PAGE 0042

LINE# LOC   CODE        LINE


02203  1EA7  B0 03              BCS XX16AC
02204  1EA9  60                 RTS 
02205  1EAA              ;********************************
02206  1EAA  38          XX16AA SEC 
02207  1EAB  60                 RTS 
02208  1EAC              ;********************************
02209  1EAC  BD 80 10    XX16AC LDA XX0880,X
02210  1EAF  99 08 11           STA XX0908,Y
02211  1EB2  E8                 INX 
02212  1EB3  D0 DC              BNE XX1691
02213  1EB5  A9 20       XX16B5 LDA #$20        ;' '
02214  1EB7  99 08 11           STA XX0908,Y
02215  1EBA  D0 D5              BNE XX1691
02216  1EBC  A9 00       XX16BC LDA #$00
02217  1EBE  8D 6C 10           STA XX086C
02218  1EC1  8D 6D 10           STA XX086D
02219  1EC4  A9 FC              LDA #$FC
02220  1EC6  2D 75 10           AND XX0875
02221  1EC9  8D 75 10           STA XX0875
02222  1ECC  EC 77 10           CPX XX0877
02223  1ECF  F0 05              BEQ XX16D6
02224  1ED1  90 03              BCC XX16D6
02225  1ED3  4C 1E 21    XX16D3 JMP XX191E
02226  1ED6              ;********************************
02227  1ED6  20 24 21    XX16D6 JSR XX1924
02228  1ED9  B0 F8              BCS XX16D3
02229  1EDB  A0 2B              LDY #$2B        ;'+'
02230  1EDD  C9 2D              CMP #$2D        ;'-'
02231  1EDF  D0 03              BNE XX16E4
02232  1EE1  A0 2D              LDY #$2D        ;'-'
02233  1EE3  E8                 INX 
02234  1EE4  8C 55 10    XX16E4 STY XX0855
02235  1EE7  EC 77 10           CPX XX0877
02236  1EEA  F0 02              BEQ XX16EE
02237  1EEC  B0 E5              BCS XX16D3
02238  1EEE  A9 00       XX16EE LDA #$00
02239  1EF0  8D 78 10           STA XX0878
02240  1EF3  8D 79 10           STA XX0879
02241  1EF6  20 24 21           JSR XX1924
02242  1EF9  B0 D8              BCS XX16D3
02243  1EFB  C9 3C              CMP #$3C        ;'<'
02244  1EFD  D0 06              BNE XX1705
02245  1EFF  EE 78 10           INC XX0878
02246  1F02  4C 0C 1F           JMP XX170C
02247  1F05              ;********************************
02248  1F05  C9 3E       XX1705 CMP #$3E        ;'>'
02249  1F07  D0 0B              BNE XX1714
02250  1F09  EE 79 10           INC XX0879
02251  1F0C  E8          XX170C INX 
02252  1F0D  EC 77 10           CPX XX0877
02253  1F10  F0 02              BEQ XX1714
02254  1F12  B0 BF              BCS XX16D3
02255  1F14  20 82 1E    XX1714 JSR XX1682
02256  1F17  90 05              BCC XX171E
02257  1F19  A0 0A              LDY #$0A






ASSEMBLERP64......PAGE 0043

LINE# LOC   CODE        LINE


02258  1F1B  4C A0 1F           JMP XX17A0
02259  1F1E              ;********************************
02260  1F1E  C9 24       XX171E CMP #$24        ;'$'
02261  1F20  D0 05              BNE XX1727
02262  1F22  A0 10              LDY #$10
02263  1F24  4C 8E 1F           JMP XX178E
02264  1F27              ;********************************
02265  1F27  C9 40       XX1727 CMP #$40        ;'@'
02266  1F29  D0 05              BNE XX1730
02267  1F2B  A0 08              LDY #$08
02268  1F2D  4C 8E 1F           JMP XX178E
02269  1F30              ;********************************
02270  1F30  C9 25       XX1730 CMP #$25        ;'%'
02271  1F32  D0 04              BNE XX1738
02272  1F34  A0 02              LDY #$02
02273  1F36  D0 56              BNE XX178E
02274  1F38  20 75 1E    XX1738 JSR XX1675
02275  1F3B  90 3F              BCC XX177C
02276  1F3D  8A                 TXA 
02277  1F3E  A8                 TAY 
02278  1F3F  E8          XX173F INX 
02279  1F40  EC 77 10           CPX XX0877
02280  1F43  F0 02              BEQ XX1747
02281  1F45  B0 0A              BCS XX1751
02282  1F47  20 82 1E    XX1747 JSR XX1682
02283  1F4A  B0 F3              BCS XX173F
02284  1F4C  20 75 1E           JSR XX1675
02285  1F4F  B0 EE              BCS XX173F
02286  1F51  8C 7B 10    XX1751 STY XX087B
02287  1F54  8A                 TXA 
02288  1F55  38                 SEC 
02289  1F56  ED 7B 10           SBC XX087B
02290  1F59  C9 07              CMP #$07
02291  1F5B  90 03              BCC XX1760
02292  1F5D  4C 1E 21    XX175D JMP XX191E
02293  1F60              ;********************************
02294  1F60  8D 56 10    XX1760 STA XX0856
02295  1F63  AE 7B 10           LDX XX087B
02296  1F66  20 8F 1E           JSR XX168F
02297  1F69  90 F2              BCC XX175D
02298  1F6B  8E 7C 10           STX XX087C
02299  1F6E  20 F8 21           JSR XX19F8
02300  1F71  AE 7C 10           LDX XX087C
02301  1F74  B0 56              BCS XX17CC
02302  1F76  AE 7B 10           LDX XX087B
02303  1F79  4C 1B 21           JMP XX191B
02304  1F7C              ;********************************
02305  1F7C  C9 2A       XX177C CMP #$2A        ;'*'
02306  1F7E  D0 DD              BNE XX175D
02307  1F80  A5 06              LDA $06
02308  1F82  8D 54 10           STA XX0854
02309  1F85  A5 07              LDA $07
02310  1F87  8D 53 10           STA XX0853
02311  1F8A  E8                 INX 
02312  1F8B  4C CC 1F           JMP XX17CC






ASSEMBLERP64......PAGE 0044

LINE# LOC   CODE        LINE


02313  1F8E              ;********************************
02314  1F8E  E8          XX178E INX 
02315  1F8F  EC 77 10           CPX XX0877
02316  1F92  F0 02              BEQ XX1796
02317  1F94  B0 C7              BCS XX175D
02318  1F96  20 82 1E    XX1796 JSR XX1682
02319  1F99  B0 05              BCS XX17A0
02320  1F9B  20 75 1E           JSR XX1675
02321  1F9E  90 BD              BCC XX175D
02322  1FA0  8C 58 10    XX17A0 STY XX0858
02323  1FA3  8A                 TXA 
02324  1FA4  A8                 TAY 
02325  1FA5  E8          XX17A5 INX 
02326  1FA6  EC 77 10           CPX XX0877
02327  1FA9  F0 02              BEQ XX17AD
02328  1FAB  10 0A              BPL XX17B7
02329  1FAD  20 82 1E    XX17AD JSR XX1682
02330  1FB0  B0 F3              BCS XX17A5
02331  1FB2  20 75 1E           JSR XX1675
02332  1FB5  B0 EE              BCS XX17A5
02333  1FB7  8C 7B 10    XX17B7 STY XX087B
02334  1FBA  8A                 TXA 
02335  1FBB  38                 SEC 
02336  1FBC  ED 7B 10           SBC XX087B
02337  1FBF  8D 56 10           STA XX0856
02338  1FC2  98                 TYA 
02339  1FC3  AA                 TAX 
02340  1FC4  20 39 21           JSR XX1939
02341  1FC7  B0 03              BCS XX17CC
02342  1FC9  4C 1E 21           JMP XX191E
02343  1FCC              ;********************************
02344  1FCC  AD 78 10    XX17CC LDA XX0878
02345  1FCF  F0 07              BEQ XX17D8
02346  1FD1  A9 00              LDA #$00
02347  1FD3  8D 53 10           STA XX0853
02348  1FD6  F0 10              BEQ XX17E8
02349  1FD8  AD 79 10    XX17D8 LDA XX0879
02350  1FDB  F0 0B              BEQ XX17E8
02351  1FDD  AD 53 10           LDA XX0853
02352  1FE0  8D 54 10           STA XX0854
02353  1FE3  A9 00              LDA #$00
02354  1FE5  8D 53 10           STA XX0853
02355  1FE8  AD 55 10    XX17E8 LDA XX0855
02356  1FEB  C9 2B              CMP #$2B        ;'+'
02357  1FED  D0 50              BNE XX183F
02358  1FEF  AD 6D 10           LDA XX086D
02359  1FF2  18                 CLC 
02360  1FF3  6D 54 10           ADC XX0854
02361  1FF6  8D 6D 10           STA XX086D
02362  1FF9  AD 6C 10           LDA XX086C
02363  1FFC  6D 53 10           ADC XX0853
02364  1FFF  8D 6C 10           STA XX086C
02365  2002  A9 00              LDA #$00
02366  2004  2A                 ROL A
02367  2005  A8                 TAY 






ASSEMBLERP64......PAGE 0045

LINE# LOC   CODE        LINE


02368  2006  A9 01              LDA #$01
02369  2008  2D 75 10           AND XX0875
02370  200B  0A                 ASL A
02371  200C  8D 7B 10           STA XX087B
02372  200F  A9 02              LDA #$02
02373  2011  2D 75 10           AND XX0875
02374  2014  4D 7B 10           EOR XX087B
02375  2017  D0 0D              BNE XX1826
02376  2019  98                 TYA 
02377  201A  F0 15              BEQ XX1831
02378  201C  A9 08              LDA #$08
02379  201E  0D 75 10           ORA XX0875
02380  2021  8D 75 10           STA XX0875
02381  2024  D0 0B              BNE XX1831
02382  2026  98          XX1826 TYA 
02383  2027  F0 0B              BEQ XX1834
02384  2029  A9 FE              LDA #$FE
02385  202B  2D 75 10           AND XX0875
02386  202E  8D 75 10           STA XX0875
02387  2031  4C 9B 20    XX1831 JMP XX189B
02388  2034              ;********************************
02389  2034  A9 01       XX1834 LDA #$01
02390  2036  0D 75 10           ORA XX0875
02391  2039  8D 75 10           STA XX0875
02392  203C  4C 9B 20           JMP XX189B
02393  203F              ;********************************
02394  203F  C9 2D       XX183F CMP #$2D        ;'-'
02395  2041  D0 6B              BNE XX18AE
02396  2043  AD 6D 10           LDA XX086D
02397  2046  38                 SEC 
02398  2047  ED 54 10           SBC XX0854
02399  204A  8D 6D 10           STA XX086D
02400  204D  AD 6C 10           LDA XX086C
02401  2050  ED 53 10           SBC XX0853
02402  2053  8D 6C 10           STA XX086C
02403  2056  A9 00              LDA #$00
02404  2058  2A                 ROL A
02405  2059  A8                 TAY 
02406  205A  A9 01              LDA #$01
02407  205C  2D 75 10           AND XX0875
02408  205F  0A                 ASL A
02409  2060  8D 7B 10           STA XX087B
02410  2063  A9 02              LDA #$02
02411  2065  2D 75 10           AND XX0875
02412  2068  4D 7B 10           EOR XX087B
02413  206B  D0 19              BNE XX1886
02414  206D  98                 TYA 
02415  206E  F0 0B              BEQ XX187B
02416  2070  A9 FE              LDA #$FE
02417  2072  2D 75 10           AND XX0875
02418  2075  8D 75 10           STA XX0875
02419  2078  4C 9B 20           JMP XX189B
02420  207B              ;********************************
02421  207B  A9 01       XX187B LDA #$01
02422  207D  0D 75 10           ORA XX0875






ASSEMBLERP64......PAGE 0046

LINE# LOC   CODE        LINE


02423  2080  8D 75 10           STA XX0875
02424  2083  4C 9B 20           JMP XX189B
02425  2086              ;********************************
02426  2086  8C 7B 10    XX1886 STY XX087B
02427  2089  A9 01              LDA #$01
02428  208B  2D 75 10           AND XX0875
02429  208E  4D 7B 10           EOR XX087B
02430  2091  F0 08              BEQ XX189B
02431  2093  A9 08              LDA #$08
02432  2095  0D 75 10           ORA XX0875
02433  2098  8D 75 10           STA XX0875
02434  209B  EC 77 10    XX189B CPX XX0877
02435  209E  F0 02              BEQ XX18A2
02436  20A0  10 76              BPL XX1918
02437  20A2  20 24 21    XX18A2 JSR XX1924
02438  20A5  B0 71              BCS XX1918
02439  20A7  BC 80 10           LDY XX0880,X
02440  20AA  E8                 INX 
02441  20AB  4C E4 1E           JMP XX16E4
02442  20AE              ;********************************
02443  20AE  48          XX18AE PHA 
02444  20AF  A9 00              LDA #$00
02445  20B1  8D 7B 10           STA XX087B
02446  20B4  8D 7C 10           STA XX087C
02447  20B7  68                 PLA 
02448  20B8  C9 2A              CMP #$2A        ;'*'
02449  20BA  D0 38              BNE XX18F4
02450  20BC  0E 7C 10    XX18BC ASL XX087C
02451  20BF  2E 7B 10           ROL XX087B
02452  20C2  4E 53 10           LSR XX0853
02453  20C5  6E 54 10           ROR XX0854
02454  20C8  90 13              BCC XX18DD
02455  20CA  18                 CLC 
02456  20CB  AD 7C 10           LDA XX087C
02457  20CE  6D 6D 10           ADC XX086D
02458  20D1  8D 7C 10           STA XX087C
02459  20D4  AD 7B 10           LDA XX087B
02460  20D7  6D 6C 10           ADC XX086C
02461  20DA  8D 7B 10           STA XX087B
02462  20DD  AD 53 10    XX18DD LDA XX0853
02463  20E0  0D 54 10           ORA XX0854
02464  20E3  D0 D7              BNE XX18BC
02465  20E5  AD 7B 10    XX18E5 LDA XX087B
02466  20E8  8D 6C 10           STA XX086C
02467  20EB  AD 7C 10           LDA XX087C
02468  20EE  8D 6D 10           STA XX086D
02469  20F1  4C 9B 20           JMP XX189B
02470  20F4              ;********************************
02471  20F4  C9 2F       XX18F4 CMP #$2F        ;'/'
02472  20F6  D0 26              BNE XX191E
02473  20F8  AD 6D 10    XX18F8 LDA XX086D
02474  20FB  38                 SEC 
02475  20FC  ED 54 10           SBC XX0854
02476  20FF  8D 6D 10           STA XX086D
02477  2102  AD 6C 10           LDA XX086C






ASSEMBLERP64......PAGE 0047

LINE# LOC   CODE        LINE


02478  2105  ED 53 10           SBC XX0853
02479  2108  8D 6C 10           STA XX086C
02480  210B  90 D8              BCC XX18E5
02481  210D  EE 7C 10           INC XX087C
02482  2110  D0 E6              BNE XX18F8
02483  2112  EE 7B 10           INC XX087B
02484  2115  4C F8 20           JMP XX18F8
02485  2118              ;********************************
02486  2118  A9 00       XX1918 LDA #$00
02487  211A              ;********************************
02488  211A  2C                 .BYTE $2C
02489  211B              ;********************************
02490  211B  A9 01       XX191B LDA #$01
02491  211D              ;********************************
02492  211D  2C                 .BYTE $2C
02493  211E              ;********************************
02494  211E  A9 02       XX191E LDA #$02
02495  2120  8D 57 10           STA XX0857
02496  2123  60                 RTS 
02497  2124              ;********************************
02498  2124  BD 80 10    XX1924 LDA XX0880,X
02499  2127  C9 20              CMP #$20        ;' '
02500  2129  F0 0D              BEQ XX1938
02501  212B  C9 2C              CMP #$2C        ;','
02502  212D  F0 09              BEQ XX1938
02503  212F  C9 29              CMP #$29        ;')'
02504  2131  F0 05              BEQ XX1938
02505  2133  C9 3B              CMP #$3B        ;';'
02506  2135  F0 01              BEQ XX1938
02507  2137  18                 CLC 
02508  2138  60          XX1938 RTS 
02509  2139              ;********************************
02510  2139  A9 00       XX1939 LDA #$00
02511  213B  8D 53 10           STA XX0853
02512  213E  8D 54 10           STA XX0854
02513  2141  BD 80 10    XX1941 LDA XX0880,X
02514  2144  20 82 1E           JSR XX1682
02515  2147  90 05              BCC XX194E
02516  2149  E9 30              SBC #$30        ;'0'
02517  214B  4C 55 21           JMP XX1955
02518  214E              ;********************************
02519  214E  20 75 1E    XX194E JSR XX1675
02520  2151  90 07              BCC XX195A
02521  2153  E9 37              SBC #$37        ;'7'
02522  2155  CD 58 10    XX1955 CMP XX0858
02523  2158  90 02              BCC XX195C
02524  215A  18          XX195A CLC 
02525  215B  60                 RTS 
02526  215C              ;********************************
02527  215C  8D 76 10    XX195C STA XX0876
02528  215F  8A                 TXA 
02529  2160  48                 PHA 
02530  2161  AC 58 10           LDY XX0858
02531  2164  C0 02              CPY #$02
02532  2166  D0 04              BNE XX196C






ASSEMBLERP64......PAGE 0048

LINE# LOC   CODE        LINE


02533  2168  A2 01              LDX #$01
02534  216A  D0 22              BNE XX198E
02535  216C  C0 08       XX196C CPY #$08
02536  216E  D0 04              BNE XX1974
02537  2170  A2 03              LDX #$03
02538  2172  D0 1A              BNE XX198E
02539  2174  C0 10       XX1974 CPY #$10
02540  2176  D0 04              BNE XX197C
02541  2178  A2 04              LDX #$04
02542  217A  D0 12              BNE XX198E
02543  217C  C0 0A       XX197C CPY #$0A
02544  217E  D0 DA              BNE XX195A
02545  2180  AD 53 10           LDA XX0853
02546  2183  8D 7B 10           STA XX087B
02547  2186  AD 54 10           LDA XX0854
02548  2189  8D 7C 10           STA XX087C
02549  218C  A2 03              LDX #$03
02550  218E  0E 54 10    XX198E ASL XX0854
02551  2191  2E 53 10           ROL XX0853
02552  2194  90 08              BCC XX199E
02553  2196  AD 75 10           LDA XX0875
02554  2199  09 08              ORA #$08
02555  219B  8D 75 10           STA XX0875
02556  219E  CA          XX199E DEX 
02557  219F  D0 ED              BNE XX198E
02558  21A1  C0 0A              CPY #$0A
02559  21A3  D0 2D              BNE XX19D2
02560  21A5  0E 7C 10           ASL XX087C
02561  21A8  2E 7B 10           ROL XX087B
02562  21AB  90 08              BCC XX19B5
02563  21AD  AD 75 10           LDA XX0875
02564  21B0  09 08              ORA #$08
02565  21B2  8D 75 10           STA XX0875
02566  21B5  AD 54 10    XX19B5 LDA XX0854
02567  21B8  18                 CLC 
02568  21B9  6D 7C 10           ADC XX087C
02569  21BC  8D 54 10           STA XX0854
02570  21BF  AD 53 10           LDA XX0853
02571  21C2  6D 7B 10           ADC XX087B
02572  21C5  8D 53 10           STA XX0853
02573  21C8  90 08              BCC XX19D2
02574  21CA  AD 75 10           LDA XX0875
02575  21CD  09 08              ORA #$08
02576  21CF  8D 75 10           STA XX0875
02577  21D2  AD 76 10    XX19D2 LDA XX0876
02578  21D5  18                 CLC 
02579  21D6  6D 54 10           ADC XX0854
02580  21D9  8D 54 10           STA XX0854
02581  21DC  90 0D              BCC XX19EB
02582  21DE  EE 53 10           INC XX0853
02583  21E1  D0 08              BNE XX19EB
02584  21E3  AD 75 10           LDA XX0875
02585  21E6  09 08              ORA #$08
02586  21E8  8D 75 10           STA XX0875
02587  21EB  68          XX19EB PLA 






ASSEMBLERP64......PAGE 0049

LINE# LOC   CODE        LINE


02588  21EC  AA                 TAX 
02589  21ED  E8                 INX 
02590  21EE  CE 56 10           DEC XX0856
02591  21F1  F0 03              BEQ XX19F6
02592  21F3  4C 41 21           JMP XX1941
02593  21F6              ;********************************
02594  21F6  38          XX19F6 SEC 
02595  21F7  60                 RTS 
02596  21F8              ;********************************
02597  21F8  A5 0E       XX19F8 LDA $0E
02598  21FA  85 16              STA $16
02599  21FC  A5 0F              LDA $0F
02600  21FE  85 17              STA $17
02601  2200  AD 4D 10           LDA XX084D
02602  2203  85 1B              STA $1B
02603  2205  AD 4E 10           LDA XX084E
02604  2208  0A                 ASL A
02605  2209  26 1B              ROL $1B
02606  220B  0A                 ASL A
02607  220C  26 1B              ROL $1B
02608  220E  0A                 ASL A
02609  220F  26 1B              ROL $1B
02610  2211  18                 CLC 
02611  2212  65 16              ADC $16
02612  2214  85 1A              STA $1A
02613  2216  85 1E              STA $1E
02614  2218  A5 1B              LDA $1B
02615  221A  65 17              ADC $17
02616  221C  85 1B              STA $1B
02617  221E  85 1F              STA $1F
02618  2220  38          XX1A20 SEC 
02619  2221  A5 1A              LDA $1A
02620  2223  E5 16              SBC $16
02621  2225  85 1C              STA $1C
02622  2227  A5 1B              LDA $1B
02623  2229  E5 17              SBC $17
02624  222B  B0 01              BCS XX1A2E
02625  222D  00                 BRK 
02626  222E              ;********************************
02627  222E  4A          XX1A2E LSR A
02628  222F  85 1D              STA $1D
02629  2231  A5 1C              LDA $1C
02630  2233  6A                 ROR A
02631  2234  29 F8              AND #$F8
02632  2236  85 1C              STA $1C
02633  2238  18                 CLC 
02634  2239  A5 16              LDA $16
02635  223B  65 1C              ADC $1C
02636  223D  85 18              STA $18
02637  223F  A5 17              LDA $17
02638  2241  65 1D              ADC $1D
02639  2243  85 19              STA $19
02640  2245  A0 FF              LDY #$FF
02641  2247  C8          XX1A47 INY 
02642  2248  C0 06              CPY #$06






ASSEMBLERP64......PAGE 0050

LINE# LOC   CODE        LINE


02643  224A  F0 2B              BEQ XX1A77
02644  224C  B1 18              LDA ($18),Y
02645  224E  D9 08 11           CMP XX0908,Y
02646  2251  F0 F4              BEQ XX1A47
02647  2253  A5 1C              LDA $1C
02648  2255  05 1D              ORA $1D
02649  2257  F0 12              BEQ XX1A6B
02650  2259  A5 18              LDA $18
02651  225B  A4 19              LDY $19
02652  225D  90 06              BCC XX1A65
02653  225F  85 1A              STA $1A
02654  2261  84 1B              STY $1B
02655  2263  D0 BB              BNE XX1A20
02656  2265  85 16       XX1A65 STA $16
02657  2267  84 17              STY $17
02658  2269  D0 B5              BNE XX1A20
02659  226B  90 09       XX1A6B BCC XX1A76
02660  226D  A5 16              LDA $16
02661  226F  A4 17              LDY $17
02662  2271  85 1A              STA $1A
02663  2273  84 1B              STY $1B
02664  2275  18                 CLC 
02665  2276  60          XX1A76 RTS 
02666  2277              ;********************************
02667  2277  B1 18       XX1A77 LDA ($18),Y
02668  2279  8D 53 10           STA XX0853
02669  227C  C8                 INY 
02670  227D  B1 18              LDA ($18),Y
02671  227F  8D 54 10           STA XX0854
02672  2282  AD 66 10           LDA XX0866
02673  2285  F0 43              BEQ XX1ACA
02674  2287  AD 38 10           LDA XX0838
02675  228A  F0 3E              BEQ XX1ACA
02676  228C  38                 SEC 
02677  228D  A5 18              LDA $18
02678  228F  E5 0E              SBC $0E
02679  2291  85 1C              STA $1C
02680  2293  A5 19              LDA $19
02681  2295  E5 0F              SBC $0F
02682  2297  4A                 LSR A
02683  2298  66 1C              ROR $1C
02684  229A  4A                 LSR A
02685  229B  66 1C              ROR $1C
02686  229D  4A                 LSR A
02687  229E  66 1C              ROR $1C
02688  22A0  85 1D              STA $1D
02689  22A2  A2 09              LDX #$09
02690  22A4  EC 39 10           CPX XX0839
02691  22A7  F0 0B              BEQ XX1AB4
02692  22A9  20 CC FF           JSR CLRCHN
02693  22AC  A2 09              LDX #$09
02694  22AE  8E 39 10           STX XX0839
02695  22B1  20 C9 FF           JSR CHKOUT
02696  22B4  A5 1C       XX1AB4 LDA $1C
02697  22B6  20 D2 FF           JSR CHROUT






ASSEMBLERP64......PAGE 0051

LINE# LOC   CODE        LINE


02698  22B9  A5 1D              LDA $1D
02699  22BB  20 D2 FF           JSR CHROUT
02700  22BE  AD 68 10           LDA XX0868
02701  22C1  20 D2 FF           JSR CHROUT
02702  22C4  AD 67 10           LDA XX0867
02703  22C7  20 D2 FF           JSR CHROUT
02704  22CA  38          XX1ACA SEC 
02705  22CB  60                 RTS 
02706  22CC              ;********************************
02707  22CC  18          XX1ACC CLC 
02708  22CD  A5 1E              LDA $1E
02709  22CF  69 08              ADC #$08
02710  22D1  85 1C              STA $1C
02711  22D3  A5 1F              LDA $1F
02712  22D5  69 00              ADC #$00
02713  22D7  85 1D              STA $1D
02714  22D9  A0 07              LDY #$07
02715  22DB  38                 SEC 
02716  22DC  A5 1C              LDA $1C
02717  22DE  E5 14              SBC $14
02718  22E0  A5 1D              LDA $1D
02719  22E2  E5 15              SBC $15
02720  22E4  B0 43              BCS XX1B29
02721  22E6  A5 1B       XX1AE6 LDA $1B
02722  22E8  C5 1D              CMP $1D
02723  22EA  D0 06              BNE XX1AF2
02724  22EC  A5 1A              LDA $1A
02725  22EE  C5 1C              CMP $1C
02726  22F0  F0 17              BEQ XX1B09
02727  22F2  B1 1E       XX1AF2 LDA ($1E),Y
02728  22F4  91 1C              STA ($1C),Y
02729  22F6  A5 1E              LDA $1E
02730  22F8  D0 02              BNE XX1AFC
02731  22FA  C6 1F              DEC $1F
02732  22FC  C6 1E       XX1AFC DEC $1E
02733  22FE  A5 1C              LDA $1C
02734  2300  D0 02              BNE XX1B04
02735  2302  C6 1D              DEC $1D
02736  2304  C6 1C       XX1B04 DEC $1C
02737  2306  4C E6 22           JMP XX1AE6
02738  2309              ;********************************
02739  2309  A0 05       XX1B09 LDY #$05
02740  230B  B9 08 11    XX1B0B LDA XX0908,Y
02741  230E  91 1A              STA ($1A),Y
02742  2310  88                 DEY 
02743  2311  10 F8              BPL XX1B0B
02744  2313  A0 06              LDY #$06
02745  2315  AD 53 10           LDA XX0853
02746  2318  91 1A              STA ($1A),Y
02747  231A  C8                 INY 
02748  231B  AD 54 10           LDA XX0854
02749  231E  91 1A              STA ($1A),Y
02750  2320  EE 4E 10           INC XX084E
02751  2323  D0 03              BNE XX1B28
02752  2325  EE 4D 10           INC XX084D






ASSEMBLERP64......PAGE 0052

LINE# LOC   CODE        LINE


02753  2328  60          XX1B28 RTS 
02754  2329              ;********************************
02755  2329  A9 2A       XX1B29 LDA #>AA22B5    ;#$22      ;'"'
02756  232B  A0 B5              LDY #<AA22B5    ;#$B5
02757  232D  20 68 14           JSR XX0C68
02758  2330  4C AD 2F           JMP XX27AD
02759  2333              ;********************************
02760  2333              ; MATCH OPCODE TO OPCODE TABLE
02761  2333              ;********************************
02762  2333  A9 93       XX1B33 LDA #<ZZ2093    ;#$93
02763  2335  85 0C              STA $0C
02764  2337  A9 28              LDA #>ZZ2093    ;#$20      ;' '
02765  2339  85 0D              STA $0D
02766  233B  A2 00              LDX #$00
02767  233D  A0 02       XX1B3D LDY #$02
02768  233F  B9 08 11    XX1B3F LDA XX0908,Y
02769  2342  D1 0C              CMP ($0C),Y
02770  2344  D0 10              BNE XX1B56
02771  2346  88                 DEY 
02772  2347  10 F6              BPL XX1B3F
02773  2349  BD 1C 2A           LDA XX221C,X
02774  234C  8D 52 10           STA XX0852
02775  234F  BD 54 2A           LDA XX2254,X
02776  2352  8D 51 10           STA XX0851
02777  2355  60                 RTS 
02778  2356              ;********************************
02779  2356  A5 0C       XX1B56 LDA $0C
02780  2358  18                 CLC 
02781  2359  69 03              ADC #$03
02782  235B  85 0C              STA $0C
02783  235D  90 02              BCC XX1B61
02784  235F  E6 0D              INC $0D
02785  2361  E8          XX1B61 INX 
02786  2362  E0 39              CPX #$39        ;'9'
02787  2364  30 D7              BMI XX1B3D
02788  2366  18                 CLC 
02789  2367  60                 RTS 
02790  2368              ;********************************
02791  2368  48          XX1B68 PHA 
02792  2369  98                 TYA 
02793  236A  48                 PHA 
02794  236B              ;********************************
02795  236B              ;.END
02796  236B              ;*=$1B6B
02797  236B              ;********************************
02798  236B  8D 02 11           STA XX0902
02799  236E  8A                 TXA 
02800  236F  8D 03 11           STA XX0903
02801  2372  68                 PLA 
02802  2373  AA                 TAX 
02803  2374  A5 06              LDA $06
02804  2376  8D 04 11           STA XX0904
02805  2379  A5 07              LDA $07
02806  237B  8D 05 11           STA XX0905
02807  237E  68                 PLA 






ASSEMBLERP64......PAGE 0053

LINE# LOC   CODE        LINE


02808  237F  8D 06 11           STA XX0906
02809  2382  AD 68 10           LDA XX0868
02810  2385  8D 07 11           STA XX0907
02811  2388  E0 FF              CPX #$FF
02812  238A  D0 01              BNE XX1B8D
02813  238C  E8                 INX 
02814  238D  E0 04       XX1B8D CPX #$04
02815  238F  D0 09              BNE XX1B9A
02816  2391  AD 06 11           LDA XX0906
02817  2394  C9 C9              CMP #$C9
02818  2396  D0 02              BNE XX1B9A
02819  2398  A2 02              LDX #$02
02820  239A  E0 03       XX1B9A CPX #$03
02821  239C  D0 09              BNE XX1BA7
02822  239E  AD 06 11           LDA XX0906
02823  23A1  C9 CA              CMP #$CA
02824  23A3  D0 02              BNE XX1BA7
02825  23A5  A2 02              LDX #$02
02826  23A7  8A          XX1BA7 TXA 
02827  23A8  18                 CLC 
02828  23A9  65 06              ADC $06
02829  23AB  85 06              STA $06
02830  23AD  90 02              BCC XX1BB1
02831  23AF  E6 07              INC $07
02832  23B1  AD 66 10    XX1BB1 LDA XX0866
02833  23B4  D0 0C              BNE XX1BC2
02834  23B6  AD 06 11           LDA XX0906
02835  23B9  C9 02              CMP #$02
02836  23BB  F0 05              BEQ XX1BC2
02837  23BD  C9 11              CMP #$11
02838  23BF  F0 01              BEQ XX1BC2
02839  23C1  60                 RTS 
02840  23C2              ;********************************
02841  23C2  AD 06 11    XX1BC2 LDA XX0906
02842  23C5  D0 03              BNE XX1BCA
02843  23C7  4C C4 25           JMP XX1DC4
02844  23CA              ;********************************
02845  23CA  C9 CB       XX1BCA CMP #$CB
02846  23CC  D0 06              BNE XX1BD4
02847  23CE  AD 03 11           LDA XX0903
02848  23D1  4C DC 24           JMP XX1CDC
02849  23D4              ;********************************
02850  23D4  C9 CC       XX1BD4 CMP #$CC
02851  23D6  D0 1F              BNE XX1BF7
02852  23D8  AD 03 11           LDA XX0903
02853  23DB  D0 04              BNE XX1BE1
02854  23DD  69 00              ADC #$00
02855  23DF  D0 0C              BNE XX1BED
02856  23E1  AA          XX1BE1 TAX 
02857  23E2  20 BC 1E           JSR XX16BC
02858  23E5  AD 57 10           LDA XX0857
02859  23E8  D0 07              BNE XX1BF1
02860  23EA  AD 6D 10           LDA XX086D
02861  23ED  18          XX1BED CLC 
02862  23EE  4C DC 24           JMP XX1CDC






ASSEMBLERP64......PAGE 0054

LINE# LOC   CODE        LINE


02863  23F1              ;********************************
02864  23F1  C9 01       XX1BF1 CMP #$01
02865  23F3  F0 02              BEQ XX1BF7
02866  23F5  A9 13              LDA #$13
02867  23F7  C9 CD       XX1BF7 CMP #$CD
02868  23F9  F0 1D              BEQ XX1C18
02869  23FB  8D 5F 10           STA XX085F
02870  23FE  AD 66 10           LDA XX0866
02871  2401  F0 12              BEQ XX1C15
02872  2403  AD 06 11           LDA XX0906
02873  2406  C9 02              CMP #$02
02874  2408  D0 0B              BNE XX1C15
02875  240A  A9 00              LDA #$00
02876  240C  8D 06 11           STA XX0906
02877  240F  8D 71 10           STA XX0871
02878  2412  4C C4 25           JMP XX1DC4
02879  2415              ;********************************
02880  2415  4C 43 27    XX1C15 JMP XX1F43
02881  2418              ;********************************
02882  2418  A9 00       XX1C18 LDA #$00
02883  241A  8D 71 10           STA XX0871
02884  241D  4C F5 25           JMP XX1DF5
02885  2420              ;********************************
02886  2420  A5 0E       XX1C20 LDA $0E
02887  2422  85 02              STA $02
02888  2424  A5 0F              LDA $0F
02889  2426  85 03              STA $03
02890  2428  AD 6F 10           LDA XX086F
02891  242B  C9 34              CMP #$34        ;'4'
02892  242D  B0 06              BCS XX1C35
02893  242F  20 B1 24           JSR XX1CB1
02894  2432  4C 38 24           JMP XX1C38
02895  2435              ;********************************
02896  2435  20 A9 24    XX1C35 JSR XX1CA9
02897  2438  A9 00       XX1C38 LDA #$00
02898  243A  8D 56 10           STA XX0856
02899  243D  AD 6F 10    XX1C3D LDA XX086F
02900  2440  C9 3A              CMP #$3A        ;':'
02901  2442  30 03              BMI XX1C47
02902  2444  20 A9 24           JSR XX1CA9
02903  2447  20 3B 27    XX1C47 JSR XX1F3B
02904  244A  A0 00              LDY #$00
02905  244C  B1 02       XX1C4C LDA ($02),Y
02906  244E  20 80 2F           JSR XX2780
02907  2451  C8                 INY 
02908  2452  C0 06              CPY #$06
02909  2454  D0 F6              BNE XX1C4C
02910  2456  20 35 27           JSR XX1F35
02911  2459  B1 02              LDA ($02),Y
02912  245B  20 F9 27           JSR XX1FF9
02913  245E  C8                 INY 
02914  245F  B1 02              LDA ($02),Y
02915  2461  20 F9 27           JSR XX1FF9
02916  2464  EE 56 10           INC XX0856
02917  2467  AD 56 10           LDA XX0856






ASSEMBLERP64......PAGE 0055

LINE# LOC   CODE        LINE


02918  246A  C9 04              CMP #$04
02919  246C  F0 06              BEQ XX1C74
02920  246E  20 35 27           JSR XX1F35
02921  2471  4C 82 24           JMP XX1C82
02922  2474              ;********************************
02923  2474  A9 00       XX1C74 LDA #$00
02924  2476  8D 56 10           STA XX0856
02925  2479  20 7E 2F           JSR XX277E
02926  247C  20 D7 2F           JSR XX27D7
02927  247F  EE 6F 10           INC XX086F
02928  2482  18          XX1C82 CLC 
02929  2483  A5 02              LDA $02
02930  2485  69 08              ADC #$08
02931  2487  85 02              STA $02
02932  2489  90 02              BCC XX1C8D
02933  248B  E6 03              INC $03
02934  248D  38          XX1C8D SEC 
02935  248E  AD 4E 10           LDA XX084E
02936  2491  E9 01              SBC #$01
02937  2493  8D 4E 10           STA XX084E
02938  2496  AD 4D 10           LDA XX084D
02939  2499  E9 00              SBC #$00
02940  249B  8D 4D 10           STA XX084D
02941  249E  0D 4E 10           ORA XX084E
02942  24A1  F0 05              BEQ XX1CA8
02943  24A3  90 03              BCC XX1CA8
02944  24A5  4C 3D 24           JMP XX1C3D
02945  24A8              ;********************************
02946  24A8  60          XX1CA8 RTS 
02947  24A9              ;********************************
02948  24A9  20 C0 24    XX1CA9 JSR XX1CC0
02949  24AC  A9 FD              LDA #$FD
02950  24AE  8D 6F 10           STA XX086F
02951  24B1  A2 67       XX1CB1 LDX #AA22F3-XX228C ;#$67
02952  24B3  20 5E 30           JSR XX285E
02953  24B6  AD 6F 10           LDA XX086F
02954  24B9  18                 CLC 
02955  24BA  69 06              ADC #$06
02956  24BC  8D 6F 10           STA XX086F
02957  24BF  60                 RTS 
02958  24C0              ;********************************
02959  24C0  AC 6F 10    XX1CC0 LDY XX086F
02960  24C3  C0 3A       XX1CC3 CPY #$3A        ;':'
02961  24C5  B0 06              BCS XX1CCD
02962  24C7  20 7E 2F           JSR XX277E
02963  24CA  C8                 INY 
02964  24CB  D0 F6              BNE XX1CC3
02965  24CD  20 D6 24    XX1CCD JSR XX1CD6
02966  24D0  20 7E 2F           JSR XX277E
02967  24D3  20 7E 2F           JSR XX277E
02968  24D6  20 7E 2F    XX1CD6 JSR XX277E
02969  24D9  4C 7E 2F           JMP XX277E
02970  24DC              ;********************************
02971  24DC  08          XX1CDC PHP 
02972  24DD  48                 PHA 






ASSEMBLERP64......PAGE 0056

LINE# LOC   CODE        LINE


02973  24DE  A9 04              LDA #$04
02974  24E0  2D 74 10           AND XX0874
02975  24E3  D0 03              BNE XX1CE8
02976  24E5  68                 PLA 
02977  24E6  28                 PLP 
02978  24E7  60                 RTS 
02979  24E8              ;********************************
02980  24E8  68          XX1CE8 PLA 
02981  24E9  28                 PLP 
02982  24EA  90 6E              BCC XX1D5A
02983  24EC  AA                 TAX 
02984  24ED  F0 1C              BEQ XX1D0B
02985  24EF  A0 00              LDY #$00
02986  24F1  BD 81 10    XX1CF1 LDA XX0881,X
02987  24F4  C0 14              CPY #$14
02988  24F6  F0 10              BEQ XX1D08
02989  24F8  C9 27              CMP #$27        ;'''
02990  24FA  F0 0C              BEQ XX1D08
02991  24FC  99 D0 10           STA XX08D0,Y
02992  24FF  C8                 INY 
02993  2500  E8                 INX 
02994  2501  EC 77 10           CPX XX0877
02995  2504  30 EB              BMI XX1CF1
02996  2506  F0 E9              BEQ XX1CF1
02997  2508  8C 59 10    XX1D08 STY XX0859
02998  250B  F8          XX1D0B SED 
02999  250C  18                 CLC 
03000  250D  AD 4F 10           LDA XX084F
03001  2510  69 01              ADC #$01
03002  2512  8D 4F 10           STA XX084F
03003  2515  A9 00              LDA #$00
03004  2517  6D 50 10           ADC XX0850
03005  251A  8D 50 10           STA XX0850
03006  251D  D8                 CLD 
03007  251E  20 C0 24           JSR XX1CC0
03008  2521  A0 00       XX1D21 LDY #$00
03009  2523  CC 59 10           CPY XX0859
03010  2526  F0 0C              BEQ XX1D34
03011  2528  B9 D0 10    XX1D28 LDA XX08D0,Y
03012  252B  20 80 2F           JSR XX2780
03013  252E  C8                 INY 
03014  252F  CC 59 10           CPY XX0859
03015  2532  30 F4              BMI XX1D28
03016  2534  A2 06       XX1D34 LDX #$06
03017  2536  A9 2E       XX1D36 LDA #$2E        ;'.'
03018  2538  20 80 2F           JSR XX2780
03019  253B  CA                 DEX 
03020  253C  D0 F8              BNE XX1D36
03021  253E  A2 03              LDX  #XX228F-XX228C ;#$03
03022  2540  20 5E 30           JSR XX285E
03023  2543  AD 50 10           LDA XX0850
03024  2546  20 F9 27           JSR XX1FF9
03025  2549  AD 4F 10           LDA XX084F
03026  254C  20 F9 27           JSR XX1FF9
03027  254F  A2 08              LDX #AA2294-XX228C ;#$08






ASSEMBLERP64......PAGE 0057

LINE# LOC   CODE        LINE


03028  2551  20 5E 30           JSR XX285E
03029  2554  A9 03              LDA #$03
03030  2556  8D 6F 10           STA XX086F
03031  2559  60                 RTS 
03032  255A              ;********************************
03033  255A  A8          XX1D5A TAY 
03034  255B  6D 6F 10           ADC XX086F
03035  255E  C9 3A              CMP #$3A        ;':'
03036  2560  10 A9              BPL XX1D0B
03037  2562  8D 6F 10           STA XX086F
03038  2565  20 7E 2F    XX1D65 JSR XX277E
03039  2568  88                 DEY 
03040  2569  30 02              BMI XX1D6D
03041  256B  D0 F8              BNE XX1D65
03042  256D  60          XX1D6D RTS 
03043  256E              ;********************************
03044  256E  A9 02       XX1D6E LDA #$02
03045  2570  18                 CLC 
03046  2571  20 DC 24           JSR XX1CDC
03047  2574  A2 3A              LDX #$3A        ;':'
03048  2576  CA                 DEX 
03049  2577  EC 6F 10           CPX XX086F
03050  257A  B0 06              BCS XX1D82
03051  257C  A9 00              LDA #$00
03052  257E  38                 SEC 
03053  257F  20 DC 24           JSR XX1CDC
03054  2582  EE 72 10    XX1D82 INC XX0872
03055  2585  A2 3F              LDX #AA22CB-XX228C ;#$3F      ;'?'
03056  2587  20 5E 30           JSR XX285E
03057  258A  AE 5B 10           LDX XX085B
03058  258D  AD 5C 10           LDA XX085C
03059  2590  20 B8 27           JSR XX1FB8
03060  2593  CE 72 10           DEC XX0872
03061  2596  20 7E 2F           JSR XX277E
03062  2599  EE 6F 10           INC XX086F
03063  259C  A9 40              LDA #$40        ;'@'
03064  259E  2D 74 10           AND XX0874
03065  25A1  F0 13              BEQ XX1DB6
03066  25A3  AD 73 10           LDA XX0873
03067  25A6  F0 0E              BEQ XX1DB6
03068  25A8  AD 4D 10           LDA XX084D
03069  25AB  0D 4E 10           ORA XX084E
03070  25AE  F0 06              BEQ XX1DB6
03071  25B0  20 20 24           JSR XX1C20
03072  25B3  20 7E 2F           JSR XX277E
03073  25B6  EE 72 10    XX1DB6 INC XX0872
03074  25B9  A2 56              LDX #AA22E2-XX228C ;#$56      ;'V'
03075  25BB  20 5E 30           JSR XX285E
03076  25BE  CE 72 10           DEC XX0872
03077  25C1  4C AD 2F           JMP XX27AD
03078  25C4              ;********************************
03079  25C4  AD 06 11    XX1DC4 LDA XX0906
03080  25C7  8D 71 10           STA XX0871
03081  25CA  AD 71 10           LDA XX0871
03082  25CD  D0 14              BNE XX1DE3






ASSEMBLERP64......PAGE 0058

LINE# LOC   CODE        LINE


03083  25CF  A9 04              LDA #$04
03084  25D1  2D 74 10           AND XX0874
03085  25D4  F0 0C              BEQ XX1DE2
03086  25D6  AD 7F 10           LDA XX087F
03087  25D9  29 20              AND #$20        ;' '
03088  25DB  F0 18              BEQ XX1DF5
03089  25DD  AD 74 10           LDA XX0874
03090  25E0  10 13              BPL XX1DF5
03091  25E2  60          XX1DE2 RTS 
03092  25E3              ;********************************
03093  25E3  AD 74 10    XX1DE3 LDA XX0874
03094  25E6  29 10              AND #$10
03095  25E8  F0 F8              BEQ XX1DE2
03096  25EA  A9 00              LDA #$00
03097  25EC  8D 18 11           STA XX0918
03098  25EF  8D 19 11           STA XX0919
03099  25F2  8D 1A 11           STA XX091A
03100  25F5  AD 04 11    XX1DF5 LDA XX0904
03101  25F8  85 06              STA $06
03102  25FA  AD 05 11           LDA XX0905
03103  25FD  85 07              STA $07
03104  25FF  AD 02 11           LDA XX0902
03105  2602  48          XX1E02 PHA 
03106  2603  AD 07 11           LDA XX0907
03107  2606  48                 PHA 
03108  2607  A9 00              LDA #$00
03109  2609  8D 76 10           STA XX0876
03110  260C  AD 6F 10           LDA XX086F
03111  260F  F0 04              BEQ XX1E15
03112  2611  C9 3A              CMP #$3A        ;':'
03113  2613  90 06              BCC XX1E1B
03114  2615  A9 00       XX1E15 LDA #$00
03115  2617  38                 SEC 
03116  2618  20 DC 24           JSR XX1CDC
03117  261B  68          XX1E1B PLA 
03118  261C  AA                 TAX 
03119  261D  AD 67 10           LDA XX0867
03120  2620  20 B8 27           JSR XX1FB8
03121  2623  EE 76 10           INC XX0876
03122  2626  EE 76 10           INC XX0876
03123  2629  20 3B 27           JSR XX1F3B
03124  262C  AD 7F 10           LDA XX087F
03125  262F  29 20              AND #$20        ;' '
03126  2631  F0 0B              BEQ XX1E3E
03127  2633  A9 2B              LDA #$2B        ;'+'
03128  2635  20 80 2F           JSR XX2780
03129  2638  EE 76 10           INC XX0876
03130  263B  4C 41 26           JMP XX1E41
03131  263E              ;********************************
03132  263E  20 3B 27    XX1E3E JSR XX1F3B
03133  2641  A0 00       XX1E41 LDY #$00
03134  2643  68                 PLA 
03135  2644  AA                 TAX 
03136  2645  A5 07              LDA $07
03137  2647  20 2C 27           JSR XX1F2C






ASSEMBLERP64......PAGE 0059

LINE# LOC   CODE        LINE


03138  264A  A5 06              LDA $06
03139  264C  20 2C 27           JSR XX1F2C
03140  264F  20 38 27           JSR XX1F38
03141  2652  8A                 TXA 
03142  2653  30 0A              BMI XX1E5F
03143  2655  C9 04              CMP #$04
03144  2657  30 06              BMI XX1E5F
03145  2659  A2 02              LDX #$02
03146  265B  38                 SEC 
03147  265C  E9 02              SBC #$02
03148  265E              ;********************************
03149  265E  2C                 .BYTE $2C
03150  265F              ;********************************
03151  265F  A9 00       XX1E5F LDA #$00
03152  2661  48                 PHA 
03153  2662  CA          XX1E62 DEX 
03154  2663  30 13              BMI XX1E78
03155  2665  B9 18 11           LDA XX0918,Y
03156  2668  20 2C 27           JSR XX1F2C
03157  266B  20 3B 27           JSR XX1F3B
03158  266E  C8                 INY 
03159  266F  E6 06              INC $06
03160  2671  D0 02              BNE XX1E75
03161  2673  E6 07              INC $07
03162  2675  4C 62 26    XX1E75 JMP XX1E62
03163  2678              ;********************************
03164  2678  AD 62 10    XX1E78 LDA XX0862
03165  267B  F0 03              BEQ XX1E80
03166  267D  4C 0B 27           JMP XX1F0B
03167  2680              ;********************************
03168  2680  AC 76 10    XX1E80 LDY XX0876
03169  2683  20 3E 27    XX1E83 JSR XX1F3E
03170  2686  C8                 INY 
03171  2687  C0 16              CPY #$16
03172  2689  30 F8              BMI XX1E83
03173  268B  EE 77 10           INC XX0877
03174  268E  A2 00              LDX #$00
03175  2690  AD 71 10           LDA XX0871
03176  2693  D0 4D              BNE XX1EE2
03177  2695  AD 80 10           LDA XX0880
03178  2698  C9 3B              CMP #$3B        ;';'
03179  269A  F0 46              BEQ XX1EE2
03180  269C  A0 00              LDY #$00
03181  269E  B9 80 10           LDA XX0880,Y
03182  26A1  C9 20              CMP #$20        ;' '
03183  26A3  F0 24              BEQ XX1EC9
03184  26A5  BD 80 10    XX1EA5 LDA XX0880,X
03185  26A8  E8                 INX 
03186  26A9  C9 20              CMP #$20        ;' '
03187  26AB  D0 07              BNE XX1EB4
03188  26AD  EC 77 10           CPX XX0877
03189  26B0  B0 56              BCS XX1F08
03190  26B2  90 F1              BCC XX1EA5
03191  26B4  20 80 2F    XX1EB4 JSR XX2780
03192  26B7  C8                 INY 






ASSEMBLERP64......PAGE 0060

LINE# LOC   CODE        LINE


03193  26B8  EC 77 10           CPX XX0877
03194  26BB  B0 4B              BCS XX1F08
03195  26BD  BD 80 10           LDA XX0880,X
03196  26C0  E8                 INX 
03197  26C1  C9 20              CMP #$20        ;' '
03198  26C3  D0 EF              BNE XX1EB4
03199  26C5  20 80 2F           JSR XX2780
03200  26C8  C8                 INY 
03201  26C9  C0 07       XX1EC9 CPY #$07
03202  26CB  B0 06              BCS XX1ED3
03203  26CD  20 3E 27           JSR XX1F3E
03204  26D0  C8                 INY 
03205  26D1  D0 F6              BNE XX1EC9
03206  26D3  BD 80 10    XX1ED3 LDA XX0880,X
03207  26D6  C9 20              CMP #$20        ;' '
03208  26D8  D0 08              BNE XX1EE2
03209  26DA  E8                 INX 
03210  26DB  EC 77 10           CPX XX0877
03211  26DE  B0 28              BCS XX1F08
03212  26E0  90 F1              BCC XX1ED3
03213  26E2  EC 77 10    XX1EE2 CPX XX0877
03214  26E5  B0 21              BCS XX1F08
03215  26E7  BD 80 10           LDA XX0880,X
03216  26EA  C9 3B              CMP #$3B        ;';'
03217  26EC  D0 13              BNE XX1F01
03218  26EE  48                 PHA 
03219  26EF  BD 7F 10           LDA XX087F,X
03220  26F2  C9 20              CMP #$20        ;' '
03221  26F4  D0 0A              BNE XX1F00
03222  26F6  C0 17       XX1EF6 CPY #$17
03223  26F8  B0 06              BCS XX1F00
03224  26FA  20 3E 27           JSR XX1F3E
03225  26FD  C8                 INY 
03226  26FE  D0 F6              BNE XX1EF6
03227  2700  68          XX1F00 PLA 
03228  2701  E8          XX1F01 INX 
03229  2702  20 80 2F           JSR XX2780
03230  2705  C8                 INY 
03231  2706  D0 DA              BNE XX1EE2
03232  2708  CE 77 10    XX1F08 DEC XX0877
03233  270B  20 7E 2F    XX1F0B JSR XX277E
03234  270E  EE 6F 10           INC XX086F
03235  2711  EE 62 10           INC XX0862
03236  2714  68                 PLA 
03237  2715  F0 14              BEQ XX1F2B
03238  2717  AA                 TAX 
03239  2718  AD 74 10           LDA XX0874
03240  271B  30 04              BMI XX1F21
03241  271D  8A                 TXA 
03242  271E  4C 02 26           JMP XX1E02
03243  2721              ;********************************
03244  2721  8A          XX1F21 TXA 
03245  2722  18                 CLC 
03246  2723  65 06              ADC $06
03247  2725  85 06              STA $06






ASSEMBLERP64......PAGE 0061

LINE# LOC   CODE        LINE


03248  2727  90 02              BCC XX1F2B
03249  2729  E6 07              INC $07
03250  272B  60          XX1F2B RTS 
03251  272C              ;********************************
03252  272C  EE 76 10    XX1F2C INC XX0876
03253  272F  EE 76 10           INC XX0876
03254  2732  4C F9 27           JMP XX1FF9
03255  2735              ;********************************
03256  2735  20 3B 27    XX1F35 JSR XX1F3B
03257  2738  20 3B 27    XX1F38 JSR XX1F3B
03258  273B  EE 76 10    XX1F3B INC XX0876
03259  273E  A9 20       XX1F3E LDA #$20        ;' '
03260  2740  4C 80 2F           JMP XX2780
03261  2743              ;********************************
03262  2743  EE 72 10    XX1F43 INC XX0872
03263  2746  AD 74 10           LDA XX0874
03264  2749  29 10              AND #$10
03265  274B  F0 5F              BEQ XX1FAC
03266  274D  AD 6F 10           LDA XX086F
03267  2750  C9 3A              CMP #$3A        ;':'
03268  2752  30 06              BMI XX1F5A
03269  2754  A9 00              LDA #$00
03270  2756  38                 SEC 
03271  2757  20 DC 24           JSR XX1CDC
03272  275A  20 C4 25    XX1F5A JSR XX1DC4
03273  275D  A2 00              LDX #$00
03274  275F  20 5E 30           JSR XX285E
03275  2762  20 38 27           JSR XX1F38
03276  2765  AE 5F 10           LDX XX085F
03277  2768  8A                 TXA 
03278  2769  29 0F              AND #$0F
03279  276B  E0 20              CPX #$20        ;' '
03280  276D  90 02              BCC XX1F71
03281  276F  69 09              ADC #$09
03282  2771  E0 10       XX1F71 CPX #$10
03283  2773  90 02              BCC XX1F77
03284  2775  69 09              ADC #$09
03285  2777  AA          XX1F77 TAX 
03286  2778  CA                 DEX 
03287  2779  8A                 TXA 
03288  277A  0A                 ASL A
03289  277B  AA                 TAX 
03290  277C  BD 1B 2E           LDA XX261B,X
03291  277F  85 0A              STA $0A
03292  2781  BD 1C 2E           LDA XX261C,X
03293  2784  85 0B              STA $0B
03294  2786  A0 00              LDY #$00
03295  2788  B1 0A       XX1F88 LDA ($0A),Y
03296  278A  20 80 2F           JSR XX2780
03297  278D  C8                 INY 
03298  278E  C0 15              CPY #$15
03299  2790  D0 F6              BNE XX1F88
03300  2792  CE 03 11    XX1F92 DEC XX0903
03301  2795  30 0A              BMI XX1FA1
03302  2797  F0 08              BEQ XX1FA1






ASSEMBLERP64......PAGE 0062

LINE# LOC   CODE        LINE


03303  2799  A9 2A              LDA #$2A        ;'*'
03304  279B  20 80 2F           JSR XX2780
03305  279E  4C 92 27           JMP XX1F92
03306  27A1              ;********************************
03307  27A1  A9 5E       XX1FA1 LDA #$5E        ;'^'
03308  27A3  20 80 2F           JSR XX2780
03309  27A6  20 7E 2F           JSR XX277E
03310  27A9  EE 6F 10           INC XX086F
03311  27AC  EE 5B 10    XX1FAC INC XX085B
03312  27AF  D0 03              BNE XX1FB4
03313  27B1  EE 5C 10           INC XX085C
03314  27B4  CE 72 10    XX1FB4 DEC XX0872
03315  27B7  60                 RTS 
03316  27B8              ;********************************
03317  27B8  8E 7D 10    XX1FB8 STX XX087D
03318  27BB  8D 7E 10           STA XX087E
03319  27BE  A2 04              LDX #$04
03320  27C0  86 18              STX $18
03321  27C2  A6 18       XX1FC2 LDX $18
03322  27C4  A0 30              LDY #$30        ;'0'
03323  27C6  D0 01              BNE XX1FC9
03324  27C8  C8          XX1FC8 INY 
03325  27C9  38          XX1FC9 SEC 
03326  27CA  AD 7D 10           LDA XX087D
03327  27CD  FD 55 2E           SBC XX2655,X
03328  27D0  8D 7D 10           STA XX087D
03329  27D3  AD 7E 10           LDA XX087E
03330  27D6  FD 5A 2E           SBC XX265A,X
03331  27D9  8D 7E 10           STA XX087E
03332  27DC  B0 EA              BCS XX1FC8
03333  27DE  AD 7D 10           LDA XX087D
03334  27E1  7D 55 2E           ADC XX2655,X
03335  27E4  8D 7D 10           STA XX087D
03336  27E7  AD 7E 10           LDA XX087E
03337  27EA  7D 5A 2E           ADC XX265A,X
03338  27ED  8D 7E 10           STA XX087E
03339  27F0  98                 TYA 
03340  27F1  20 80 2F           JSR XX2780
03341  27F4  C6 18              DEC $18
03342  27F6  10 CA              BPL XX1FC2
03343  27F8  60                 RTS 
03344  27F9              ;********************************
03345  27F9  48          XX1FF9 PHA 
03346  27FA  4A                 LSR A
03347  27FB  4A                 LSR A
03348  27FC  4A                 LSR A
03349  27FD  4A                 LSR A
03350  27FE  20 04 28           JSR XX2004
03351  2801  68                 PLA 
03352  2802  29 0F              AND #$0F
03353  2804  18          XX2004 CLC 
03354  2805  69 30              ADC #$30        ;'0'
03355  2807  C9 3A              CMP #$3A        ;':'
03356  2809              ;       BMI XX200E
03357  2809  30 03       XX2009 BMI XX200E






ASSEMBLERP64......PAGE 0063

LINE# LOC   CODE        LINE


03358  280B  18                 CLC 
03359  280C  69 07              ADC #$07
03360  280E  4C 80 2F    XX200E JMP XX2780
03361  2811              ;********************************
03362  2811              .LIB   ASSTABLE64.ASM
03363  2811              ;********************************
03364  2811              ;FILE: ASSTABLEA.ASM.SEQ
03365  2811              ;********************************
03366  2811              ;
03367  2811              ;********************************
03368  2811              ; FUNCTION VECTOR TABLE
03369  2811              ;********************************
03370  2811              ;
03371  2811  F3          XX2011 .BYTE <BB10F3   ;$F3
03372  2812  18          XX2012 .BYTE >BB10F3   ;$10
03373  2813              ;
03374  2813  F0                 .BYTE <BB10F0   ;$F0
03375  2814  18                 .BYTE >BB10F0   ;$10
03376  2815              ;
03377  2815  ED                 .BYTE <BB10ED   ;$ED
03378  2816  18                 .BYTE >BB10ED   ;$10
03379  2817              ;
03380  2817  EA                 .BYTE <BB10EA   ;$EA
03381  2818  18                 .BYTE >BB10EA   ;$10
03382  2819              ;
03383  2819  E7                 .BYTE <BB10E7   ;$E7
03384  281A  18                 .BYTE >BB10E7   ;$10
03385  281B              ;
03386  281B  E4                 .BYTE <BB10E4   ;$E4
03387  281C  18                 .BYTE >BB10E4   ;$10
03388  281D              ;
03389  281D  E1                 .BYTE <BB10E1   ;$E1
03390  281E  18                 .BYTE >BB10E1   ;$10
03391  281F              ;
03392  281F  E1                 .BYTE <BB10E1   ;$E1
03393  2820  18                 .BYTE >BB10E1   ;$10
03394  2821              ;
03395  2821  DE                 .BYTE <BB10DE   ;$DE
03396  2822  18                 .BYTE >BB10DE   ;$10
03397  2823              ;
03398  2823  DB                 .BYTE <BB10DB   ;$DB
03399  2824  18                 .BYTE >BB10DB   ;$10
03400  2825              ;
03401  2825  D8                 .BYTE <BB10D8   ;$D8
03402  2826  18                 .BYTE >BB10D8   ;$10
03403  2827              ;
03404  2827  D5                 .BYTE <BB10D5   ;$D5
03405  2828  18                 .BYTE >BB10D5   ;$10
03406  2829              ;
03407  2829  D2                 .BYTE <ZZ10D2   ;$D2
03408  282A  18                 .BYTE >ZZ10D2   ;$10
03409  282B              ;
03410  282B  1C                 .BYTE <WW2A1C   ;$1C
03411  282C  32                 .BYTE >WW2A1C   ;$2A ;'*'
03412  282D              ;






ASSEMBLERP64......PAGE 0064

LINE# LOC   CODE        LINE


03413  282D  3A                 .BYTE <WW2B3A   ;$3A ;':'
03414  282E  33                 .BYTE >WW2B3A   ;$2B ;'+'
03415  282F              ;
03416  282F  21                 .BYTE <BB1221   ;$21 ;'!'
03417  2830  1A                 .BYTE >BB1221   ;$12
03418  2831              ;
03419  2831  1E                 .BYTE <WW121E   ;$1E
03420  2832  1A                 .BYTE >WW121E   ;$12
03421  2833              ;
03422  2833  F3                 .BYTE <BB11F3   ;$F3
03423  2834  19                 .BYTE >BB11F3   ;$11
03424  2835              ;
03425  2835  83                 .BYTE <BB1183   ;$83
03426  2836  19                 .BYTE >BB1183   ;$11
03427  2837              ;
03428  2837  AD                 .BYTE <XX10AD   ;$AD
03429  2838  18                 .BYTE >XX10AD   ;$10
03430  2839              ;
03431  2839  35                 .BYTE <XX1135   ;$35 ;'5'
03432  283A  19                 .BYTE >XX1135   ;$11
03433  283B              ;
03434  283B  20                 .BYTE <WW1120   ;$20 ;' '
03435  283C  19                 .BYTE >WW1120   ;$11
03436  283D              ;
03437  283D  11                 .BYTE <WW1111   ;$11
03438  283E  19                 .BYTE >WW1111   ;$11
03439  283F              ;
03440  283F  4A                 .BYTE <BB0F4A   ;$4A ;'J'
03441  2840  17                 .BYTE >BB0F4A   ;$0F
03442  2841              ;
03443  2841  4D                 .BYTE <BB0F4D   ;$4D ;'M'
03444  2842  17                 .BYTE >BB0F4D   ;$0F
03445  2843              ;
03446  2843  47                 .BYTE <WW0F47   ;$47 ;'G'
03447  2844  17                 .BYTE >WW0F47   ;$0F
03448  2845              ;********************************
03449  2845              ; ASSEMBER DIRECTIVES
03450  2845              ;********************************
03451  2845  42 59 54    AA2045 .BYTE 'BYT'     ;BYTE
03452  2848  57 4F 52           .BYTE 'WOR'     ;WORD
03453  284B  44 42 59           .BYTE 'DBY'     ;DBYTE
03454  284E  53 4B 49           .BYTE 'SKI'     ;SKIP
03455  2851  50 41 47           .BYTE 'PAG'     ;PAGE
03456  2854  45 4E 44           .BYTE 'END'     ;END
03457  2857  4F 50 54           .BYTE 'OPT'     ;OPT
03458  285A  46 49 4C           .BYTE 'FIL'     ;FIL
03459  285D  4C 49 42           .BYTE 'LIB'     ;LIB
03460  2860  49 46 4E           .BYTE 'IFN'
03461  2863  49 46 45           .BYTE 'IFE'
03462  2866  4D 4E 44    XX2066 .BYTE 'MND'     ;MACRO END
03463  2869  4D 41 43           .BYTE 'MAC'     ;MACRO BEGIN
03464  286C  47 45 4E    ZZ206C .BYTE 'GEN'     ;GENERATE
03465  286F  4E 4F 47           .BYTE 'NOG'     ;NOGENERATE
03466  2872  53 59 4D           .BYTE 'SYM'     ;SYMBOL
03467  2875  4E 4F 53           .BYTE 'NOS'     ;NOSYMBOL






ASSEMBLERP64......PAGE 0065

LINE# LOC   CODE        LINE


03468  2878  4E 4F 43           .BYTE 'NOC'
03469  287B  43 4E 54           .BYTE 'CNT'
03470  287E  43 4F 55           .BYTE 'COU'
03471  2881  45 52 52           .BYTE 'ERR'     ;ERRORS
03472  2884  4E 4F 45           .BYTE 'NOE'     ;NOERRORS
03473  2887  4D 45 4D           .BYTE 'MEM'
03474  288A  4E 4F 4D           .BYTE 'NOM'
03475  288D  4C 49 53           .BYTE 'LIS'     ;LIST
03476  2890  4E 4F 4C           .BYTE 'NOL'     ;NOLIST
03477  2893              ;********************************
03478  2893              ; ASSEBMLER OPCODES
03479  2893              ;********************************
03480  2893  41 44 43    ZZ2093 .BYTE 'ADC'
03481  2896  41 4E 44           .BYTE 'AND'
03482  2899  41 53 4C           .BYTE 'ASL'
03483  289C  42 43 43           .BYTE 'BCC'
03484  289F  42 43 53           .BYTE 'BCS'
03485  28A2  42 45 51           .BYTE 'BEQ'
03486  28A5  42 49 54           .BYTE 'BIT'
03487  28A8  42 4D 49           .BYTE 'BMI'
03488  28AB  42 4E 45           .BYTE 'BNE'
03489  28AE  42 50 4C           .BYTE 'BPL'
03490  28B1  42 52 4B           .BYTE 'BRK'
03491  28B4  42 56 43           .BYTE 'BVC'
03492  28B7  42 56 53           .BYTE 'BVS'
03493  28BA  43 4C 43           .BYTE 'CLC'
03494  28BD  43 4C 44           .BYTE 'CLD'
03495  28C0  43 4C 49           .BYTE 'CLI'
03496  28C3  43 4C 56           .BYTE 'CLV'
03497  28C6  43 4D 50           .BYTE 'CMP'
03498  28C9  43 50 58           .BYTE 'CPX'
03499  28CC  43 50 59           .BYTE 'CPY'
03500  28CF  44 45 43           .BYTE 'DEC'
03501  28D2  44 45 58           .BYTE 'DEX'
03502  28D5  44 45 59           .BYTE 'DEY'
03503  28D8  45 4F 52           .BYTE 'EOR'
03504  28DB  49 4E 43           .BYTE 'INC'
03505  28DE  49 4E 58           .BYTE 'INX'
03506  28E1  49 4E 59           .BYTE 'INY'
03507  28E4  4A 4D 50           .BYTE 'JMP'
03508  28E7  4A 53 52           .BYTE 'JSR'
03509  28EA  4C 44 41           .BYTE 'LDA'
03510  28ED  4C 44 58           .BYTE 'LDX'
03511  28F0  4C 44 59           .BYTE 'LDY'
03512  28F3  4C 53 52           .BYTE 'LSR'
03513  28F6  4E 4F 50           .BYTE 'NOP'
03514  28F9  4F 52 41           .BYTE 'ORA'
03515  28FC  50 48 41           .BYTE 'PHA'
03516  28FF  50 48 50           .BYTE 'PHP'
03517  2902  50 4C 41           .BYTE 'PLA'
03518  2905  50 4C 50           .BYTE 'PLP'
03519  2908  52 4F 4C           .BYTE 'ROL'
03520  290B  52 4F 52           .BYTE 'ROR'
03521  290E  52 54 49           .BYTE 'RTI'
03522  2911  52 54 53           .BYTE 'RTS'






ASSEMBLERP64......PAGE 0066

LINE# LOC   CODE        LINE


03523  2914  53 42 43           .BYTE 'SBC'
03524  2917  53 45 43           .BYTE 'SEC'
03525  291A  53 45 44           .BYTE 'SED'
03526  291D  53 45 49           .BYTE 'SEI'
03527  2920  53 54 41           .BYTE 'STA'
03528  2923  53 54 58           .BYTE 'STX'
03529  2926  53 54 59           .BYTE 'STY'
03530  2929  54 41 58           .BYTE 'TAX'
03531  292C  54 41 59           .BYTE 'TAY'
03532  292F  54 53 58           .BYTE 'TSX'
03533  2932  54 58 41           .BYTE 'TXA'
03534  2935  54 58 53           .BYTE 'TXS'
03535  2938  54 59 41           .BYTE 'TYA'
03536  293B              ;********************************
03537  293B              ;
03538  293B              ;********************************
03539  293B  FF          XX213B .BYTE $FF
03540  293C  0D                 .BYTE $0D
03541  293D  1B                 .BYTE $1B
03542  293E  29                 .BYTE $29       ;')'
03543  293F  37                 .BYTE $37       ;'7'
03544  2940  45                 .BYTE $45       ;'E'
03545  2941  53                 .BYTE $53       ;'S'
03546  2942  61                 .BYTE $61
03547  2943  6F                 .BYTE $6F
03548  2944  7D                 .BYTE $7D
03549  2945  8B                 .BYTE $8B
03550  2946  99                 .BYTE $99
03551  2947  A7                 .BYTE $A7
03552  2948  B5                 .BYTE $B5
03553  2949              ;********************************
03554  2949              ;
03555  2949              ;********************************
03556  2949  C3          XX2149 .BYTE $C3
03557  294A  FF          XX214A .BYTE $FF
03558  294B  FF                 .BYTE $FF
03559  294C  FF                 .BYTE $FF
03560  294D  FF                 .BYTE $FF
03561  294E  04                 .BYTE $04
03562  294F  FF                 .BYTE $FF
03563  2950  FF                 .BYTE $FF
03564  2951  FF                 .BYTE $FF
03565  2952  FF                 .BYTE $FF
03566  2953  FF                 .BYTE $FF
03567  2954  FF                 .BYTE $FF
03568  2955  FF                 .BYTE $FF
03569  2956  FF                 .BYTE $FF
03570  2957  FF                 .BYTE $FF
03571  2958  04                 .BYTE $04
03572  2959  04                 .BYTE $04
03573  295A  FF                 .BYTE $FF
03574  295B  FF                 .BYTE $FF
03575  295C  00                 .BYTE $00
03576  295D  04                 .BYTE $04
03577  295E  00                 .BYTE $00






ASSEMBLERP64......PAGE 0067

LINE# LOC   CODE        LINE


03578  295F  04                 .BYTE $04
03579  2960  00                 .BYTE $00
03580  2961  00                 .BYTE $00
03581  2962  04                 .BYTE $04
03582  2963  00                 .BYTE $00
03583  2964  FF                 .BYTE $FF
03584  2965  00                 .BYTE $00
03585  2966  14                 .BYTE $14
03586  2967  14                 .BYTE $14
03587  2968  FF                 .BYTE $FF
03588  2969  FF                 .BYTE $FF
03589  296A  10                 .BYTE $10
03590  296B  FF                 .BYTE $FF
03591  296C  FF                 .BYTE $FF
03592  296D  14                 .BYTE $14
03593  296E  FF                 .BYTE $FF
03594  296F  10                 .BYTE $10
03595  2970  FF                 .BYTE $FF
03596  2971  10                 .BYTE $10
03597  2972  FF                 .BYTE $FF
03598  2973  FF                 .BYTE $FF
03599  2974  FF                 .BYTE $FF
03600  2975  FF                 .BYTE $FF
03601  2976  FF                 .BYTE $FF
03602  2977  FF                 .BYTE $FF
03603  2978  FF                 .BYTE $FF
03604  2979  FF                 .BYTE $FF
03605  297A  FF                 .BYTE $FF
03606  297B  FF                 .BYTE $FF
03607  297C  10                 .BYTE $10
03608  297D  FF                 .BYTE $FF
03609  297E  14                 .BYTE $14
03610  297F  FF                 .BYTE $FF
03611  2980  FF                 .BYTE $FF
03612  2981  FF                 .BYTE $FF
03613  2982  FF                 .BYTE $FF
03614  2983  FF                 .BYTE $FF
03615  2984  FF                 .BYTE $FF
03616  2985  FF                 .BYTE $FF
03617  2986  FF                 .BYTE $FF
03618  2987  FF                 .BYTE $FF
03619  2988  FF                 .BYTE $FF
03620  2989  FF                 .BYTE $FF
03621  298A  FF                 .BYTE $FF
03622  298B  FF                 .BYTE $FF
03623  298C  FF                 .BYTE $FF
03624  298D  FF                 .BYTE $FF
03625  298E  FF                 .BYTE $FF
03626  298F  FF                 .BYTE $FF
03627  2990  FF                 .BYTE $FF
03628  2991  FF                 .BYTE $FF
03629  2992  FF                 .BYTE $FF
03630  2993  FF                 .BYTE $FF
03631  2994  FF                 .BYTE $FF
03632  2995  FF                 .BYTE $FF






ASSEMBLERP64......PAGE 0068

LINE# LOC   CODE        LINE


03633  2996  FF                 .BYTE $FF
03634  2997  FF                 .BYTE $FF
03635  2998  FF                 .BYTE $FF
03636  2999  FF                 .BYTE $FF
03637  299A  FF                 .BYTE $FF
03638  299B  FF                 .BYTE $FF
03639  299C  FF                 .BYTE $FF
03640  299D  FF                 .BYTE $FF
03641  299E  FF                 .BYTE $FF
03642  299F  FF                 .BYTE $FF
03643  29A0  FF                 .BYTE $FF
03644  29A1  FF                 .BYTE $FF
03645  29A2  FF                 .BYTE $FF
03646  29A3  FF                 .BYTE $FF
03647  29A4  FF                 .BYTE $FF
03648  29A5  FF                 .BYTE $FF
03649  29A6  FF                 .BYTE $FF
03650  29A7  FF                 .BYTE $FF
03651  29A8  FF                 .BYTE $FF
03652  29A9  FF                 .BYTE $FF
03653  29AA  FF                 .BYTE $FF
03654  29AB  FF                 .BYTE $FF
03655  29AC  00                 .BYTE $00
03656  29AD  00                 .BYTE $00
03657  29AE              ;********************************
03658  29AE              ;
03659  29AE              ;********************************
03660  29AE  20          AA21AE .BYTE $20       ;' '
03661  29AF  FF                 .BYTE $FF
03662  29B0  FF                 .BYTE $FF
03663  29B1  FF                 .BYTE $FF
03664  29B2  FF                 .BYTE $FF
03665  29B3  FF                 .BYTE $FF
03666  29B4  FF                 .BYTE $FF
03667  29B5  FF                 .BYTE $FF
03668  29B6  FF                 .BYTE $FF
03669  29B7  FF                 .BYTE $FF
03670  29B8  FF                 .BYTE $FF
03671  29B9  FF                 .BYTE $FF
03672  29BA  FF                 .BYTE $FF
03673  29BB  FF                 .BYTE $FF
03674  29BC  FF                 .BYTE $FF
03675  29BD  FF                 .BYTE $FF
03676  29BE  FF                 .BYTE $FF
03677  29BF  FF                 .BYTE $FF
03678  29C0  FF                 .BYTE $FF
03679  29C1  FF                 .BYTE $FF
03680  29C2  FF                 .BYTE $FF
03681  29C3  FF                 .BYTE $FF
03682  29C4  FF                 .BYTE $FF
03683  29C5  FF                 .BYTE $FF
03684  29C6  FF                 .BYTE $FF
03685  29C7  FF                 .BYTE $FF
03686  29C8  FF                 .BYTE $FF
03687  29C9  FF                 .BYTE $FF






ASSEMBLERP64......PAGE 0069

LINE# LOC   CODE        LINE


03688  29CA  FF                 .BYTE $FF
03689  29CB  FF                 .BYTE $FF
03690  29CC  FF                 .BYTE $FF
03691  29CD  FF                 .BYTE $FF
03692  29CE  FF                 .BYTE $FF
03693  29CF  FF                 .BYTE $FF
03694  29D0  FF                 .BYTE $FF
03695  29D1  FF                 .BYTE $FF
03696  29D2  FF                 .BYTE $FF
03697  29D3  FF                 .BYTE $FF
03698  29D4  FF                 .BYTE $FF
03699  29D5  FF                 .BYTE $FF
03700  29D6  10                 .BYTE $10
03701  29D7  10                 .BYTE $10
03702  29D8  FF                 .BYTE $FF
03703  29D9  FF                 .BYTE $FF
03704  29DA  FF                 .BYTE $FF
03705  29DB  FF                 .BYTE $FF
03706  29DC  FF                 .BYTE $FF
03707  29DD  FF                 .BYTE $FF
03708  29DE  FF                 .BYTE $FF
03709  29DF  FF                 .BYTE $FF
03710  29E0  FF                 .BYTE $FF
03711  29E1  FF                 .BYTE $FF
03712  29E2  FF                 .BYTE $FF
03713  29E3  FF                 .BYTE $FF
03714  29E4  08                 .BYTE $08
03715  29E5  FF                 .BYTE $FF
03716  29E6  FF                 .BYTE $FF
03717  29E7  FF                 .BYTE $FF
03718  29E8  FF                 .BYTE $FF
03719  29E9  00                 .BYTE $00
03720  29EA  FF                 .BYTE $FF
03721  29EB  00                 .BYTE $00
03722  29EC  FF                 .BYTE $FF
03723  29ED  FF                 .BYTE $FF
03724  29EE  00                 .BYTE $00
03725  29EF  FF                 .BYTE $FF
03726  29F0  FF                 .BYTE $FF
03727  29F1  FF                 .BYTE $FF
03728  29F2  0C                 .BYTE $0C
03729  29F3  0C                 .BYTE $0C
03730  29F4  00                 .BYTE $00
03731  29F5  00                 .BYTE $00
03732  29F6  08                 .BYTE $08
03733  29F7  0C                 .BYTE $0C
03734  29F8  08                 .BYTE $08
03735  29F9  0C                 .BYTE $0C
03736  29FA  08                 .BYTE $08
03737  29FB  08                 .BYTE $08
03738  29FC  0C                 .BYTE $0C
03739  29FD  08                 .BYTE $08
03740  29FE  FF                 .BYTE $FF
03741  29FF  FF                 .BYTE $FF
03742  2A00  1C                 .BYTE $1C






ASSEMBLERP64......PAGE 0070

LINE# LOC   CODE        LINE


03743  2A01  1C                 .BYTE $1C
03744  2A02  FF                 .BYTE $FF
03745  2A03  FF                 .BYTE $FF
03746  2A04  18                 .BYTE $18
03747  2A05  FF                 .BYTE $FF
03748  2A06  FF                 .BYTE $FF
03749  2A07  1C                 .BYTE $1C
03750  2A08  FF                 .BYTE $FF
03751  2A09  FF                 .BYTE $FF
03752  2A0A  FF                 .BYTE $FF
03753  2A0B  18                 .BYTE $18
03754  2A0C  FF                 .BYTE $FF
03755  2A0D  FF                 .BYTE $FF
03756  2A0E  18                 .BYTE $18
03757  2A0F  18                 .BYTE $18
03758  2A10  FF                 .BYTE $FF
03759  2A11  FF                 .BYTE $FF
03760  2A12  FF                 .BYTE $FF
03761  2A13  FF                 .BYTE $FF
03762  2A14  FF                 .BYTE $FF
03763  2A15  FF                 .BYTE $FF
03764  2A16  FF                 .BYTE $FF
03765  2A17  FF                 .BYTE $FF
03766  2A18  1C                 .BYTE $1C
03767  2A19  FF                 .BYTE $FF
03768  2A1A  FF                 .BYTE $FF
03769  2A1B  FF                 .BYTE $FF
03770  2A1C              ;********************************
03771  2A1C              ;
03772  2A1C              ;********************************
03773  2A1C  01          XX221C .BYTE $01
03774  2A1D  01                 .BYTE $01
03775  2A1E  05                 .BYTE $05
03776  2A1F  15                 .BYTE $15
03777  2A20  15                 .BYTE $15
03778  2A21  15                 .BYTE $15
03779  2A22  07                 .BYTE $07
03780  2A23  15                 .BYTE $15
03781  2A24  15                 .BYTE $15
03782  2A25  15                 .BYTE $15
03783  2A26  14                 .BYTE $14
03784  2A27  15                 .BYTE $15
03785  2A28  15                 .BYTE $15
03786  2A29  14                 .BYTE $14
03787  2A2A  14                 .BYTE $14
03788  2A2B  14                 .BYTE $14
03789  2A2C  14                 .BYTE $14
03790  2A2D  01                 .BYTE $01
03791  2A2E  06                 .BYTE $06
03792  2A2F  06                 .BYTE $06
03793  2A30  0C                 .BYTE $0C
03794  2A31  14                 .BYTE $14
03795  2A32  14                 .BYTE $14
03796  2A33  01                 .BYTE $01
03797  2A34  0C                 .BYTE $0C






ASSEMBLERP64......PAGE 0071

LINE# LOC   CODE        LINE


03798  2A35  14                 .BYTE $14
03799  2A36  14                 .BYTE $14
03800  2A37  03                 .BYTE $03
03801  2A38  04                 .BYTE $04
03802  2A39  01                 .BYTE $01
03803  2A3A  0B                 .BYTE $0B
03804  2A3B  08                 .BYTE $08
03805  2A3C  05                 .BYTE $05
03806  2A3D  14                 .BYTE $14
03807  2A3E  01                 .BYTE $01
03808  2A3F  14                 .BYTE $14
03809  2A40  14                 .BYTE $14
03810  2A41  14                 .BYTE $14
03811  2A42  14                 .BYTE $14
03812  2A43  05                 .BYTE $05
03813  2A44  05                 .BYTE $05
03814  2A45  14                 .BYTE $14
03815  2A46  14                 .BYTE $14
03816  2A47  01                 .BYTE $01
03817  2A48  14                 .BYTE $14
03818  2A49  14                 .BYTE $14
03819  2A4A  14                 .BYTE $14
03820  2A4B  02                 .BYTE $02
03821  2A4C  09                 .BYTE $09
03822  2A4D  0A                 .BYTE $0A
03823  2A4E  14                 .BYTE $14
03824  2A4F  14                 .BYTE $14
03825  2A50  14                 .BYTE $14
03826  2A51  14                 .BYTE $14
03827  2A52  14                 .BYTE $14
03828  2A53  14                 .BYTE $14
03829  2A54              ;********************************
03830  2A54              ;
03831  2A54              ;********************************
03832  2A54  61          XX2254 .BYTE $61
03833  2A55  21                 .BYTE $21       ;'!'
03834  2A56  06                 .BYTE $06
03835  2A57  90                 .BYTE $90
03836  2A58  B0                 .BYTE $B0
03837  2A59  F0                 .BYTE $F0
03838  2A5A  24                 .BYTE $24       ;'$'
03839  2A5B  30                 .BYTE $30       ;'0'
03840  2A5C  D0                 .BYTE $D0
03841  2A5D  10                 .BYTE $10
03842  2A5E  00                 .BYTE $00
03843  2A5F              ;********************************
03844  2A5F              ;
03845  2A5F              ;********************************
03846  2A5F  50                 .BYTE $50       ;'P'
03847  2A60  70                 .BYTE $70
03848  2A61  18                 .BYTE $18
03849  2A62  D8                 .BYTE $D8
03850  2A63  58                 .BYTE $58       ;'X'
03851  2A64  B8                 .BYTE $B8
03852  2A65  C1                 .BYTE $C1






ASSEMBLERP64......PAGE 0072

LINE# LOC   CODE        LINE


03853  2A66  E0                 .BYTE $E0
03854  2A67  C0                 .BYTE $C0
03855  2A68  C6                 .BYTE $C6
03856  2A69  CA                 .BYTE $CA
03857  2A6A  88                 .BYTE $88
03858  2A6B  41                 .BYTE $41       ;'A'
03859  2A6C  E6                 .BYTE $E6
03860  2A6D  E8                 .BYTE $E8
03861  2A6E  C8                 .BYTE $C8
03862  2A6F  4C                 .BYTE $4C
03863  2A70  20                 .BYTE $20
03864  2A71  A1                 .BYTE $A1
03865  2A72  A2                 .BYTE $A2
03866  2A73  A0                 .BYTE $A0
03867  2A74  46                 .BYTE $46       ;'F'
03868  2A75  EA                 .BYTE $EA
03869  2A76  01                 .BYTE $01
03870  2A77  48                 .BYTE $48       ;'H'
03871  2A78  08                 .BYTE $08
03872  2A79  68                 .BYTE $68
03873  2A7A  28                 .BYTE $28
03874  2A7B  26                 .BYTE $26
03875  2A7C  66                 .BYTE $66
03876  2A7D  40                 .BYTE $40       ;'@'
03877  2A7E  60                 .BYTE $60
03878  2A7F  E1                 .BYTE $E1
03879  2A80  38                 .BYTE $38       ;'8'
03880  2A81  F8                 .BYTE $F8
03881  2A82  78                 .BYTE $78
03882  2A83  81                 .BYTE $81
03883  2A84  86                 .BYTE $86
03884  2A85  84                 .BYTE $84
03885  2A86  AA                 .BYTE $AA
03886  2A87  A8                 .BYTE $A8
03887  2A88  BA                 .BYTE $BA
03888  2A89  8A                 .BYTE $8A
03889  2A8A  9A                 .BYTE $9A
03890  2A8B  98                 .BYTE $98
03891  2A8C              ;********************************
03892  2A8C              ;
03893  2A8C              ;********************************
03894  2A8C  2A          XX228C .BYTE $2A       ;'*'
03895  2A8D  2A                 .BYTE $2A       ;'*'
03896  2A8E  AA                 .BYTE $AA
03897  2A8F              ;********************************
03898  2A8F              ; ASSEMBLER OUTPUT MESSAGES
03899  2A8F              ; 
03900  2A8F              ; MESSGAES TERMINATE WITH 
03901  2A8F              ; LAST CHAR HIGH BIT SET
03902  2A8F              ;********************************
03903  2A8F  50 41       XX228F .BYTE 'PAGE'
03904  2A93  A0                 .BYTE $A0       ;SPACE $20 WITH BIT HIGH B
IT SET
03905  2A94              ;
03906  2A94  0D          AA2294 .BYTE $0D
03907  2A95  0D                 .BYTE $0D






ASSEMBLERP64......PAGE 0073

LINE# LOC   CODE        LINE


03908  2A96  4C 49              .BYTE 'LINE# LOC   CODE        LINE'
03909  2AB2  0D                 .BYTE $0D
03910  2AB3  0D                 .BYTE $0D
03911  2AB4  8D                 .BYTE $8D       ;CR $0D WITH HIGH BIT SET
03912  2AB5              ;
03913  2AB5  53 59       AA22B5 .BYTE 'SYMBOL TABLE OVERFLOW'
03914  2ACA  8D                 .BYTE $8D       ;CR $0D WITH HIGH BIT SET
03915  2ACB              ;
03916  2ACB  45 52       AA22CB .BYTE 'ERRORS ='
03917  2AD3  A0                 .BYTE $A0       ;SPACE $20 WITH BIT HIGH B
IT SET
03918  2AD4              ;
03919  2AD4  0D          AA22D4 .BYTE $0D
03920  2AD5  50 41              .BYTE 'PASS1'
03921  2ADA  8D          AA22DA .BYTE $8D       ;CR $0D WITH HIGH BIT SET
03922  2ADB              ;
03923  2ADB  0D          AA22DB .BYTE $0D
03924  2ADC  50 41              .BYTE 'PASS2'
03925  2AE1  8D                 .BYTE $8D       ;CR $0D WITH HIGH BIT SET
03926  2AE2              ;
03927  2AE2  0D          AA22E2 .BYTE $0D
03928  2AE3  45 4E              .BYTE 'END OF ASSEMBLY'
03929  2AF2  8D                 .BYTE $8D       ;CR $0D WITH HIGH BIT SET
03930  2AF3              ;
03931  2AF3  0D          AA22F3 .BYTE $0D       ;ERROR FIXED HAD AA22F5
03932  2AF4  0D                 .BYTE $0D
03933  2AF5  53 59              .BYTE 'SYMBOL TABLE'
03934  2B01  0D                 .BYTE $0D
03935  2B02  0D                 .BYTE $0D
03936  2B03  53 59              .BYTE 'SYMBOL VALUE'
03937  2B0F  8D                 .BYTE $8D       ;CR $0D WITH HIGH BIT SET
03938  2B10              ;
03939  2B10  0D          AA2310 .BYTE $0D
03940  2B11  53 4F              .BYTE 'SOURCE FILE NAME?'
03941  2B22  A0                 .BYTE $A0       ;SPACE $20 WITH BIT HIGH B
IT SET
03942  2B23              ;
03943  2B23  0D          AA2323 .BYTE $0D
03944  2B24  46 49              .BYTE 'FILE NAME ERROR'
03945  2B33  8D                 .BYTE $8D       ;CR $0D WITH HIGH BIT SET
03946  2B34              ;
03947  2B34  0D          AA2334 .BYTE $0D
03948  2B35  2E 4C              .BYTE '.LIB ERROR'
03949  2B3F  8D                 .BYTE $8D       ;CR $0D WITH HIGH BIT SET
03950  2B40              ;
03951  2B40  0D          AA2340 .BYTE $0D
03952  2B41  43 42              .BYTE 'CBM RESIDENT ASSEMBLER V080282'
03953  2B5F  0D                 .BYTE $0D
03954  2B60  28 43              .BYTE '(C) 1982 BY COMMODORE BUSINESS MACH
INES'
03955  2B87  0D                 .BYTE $0D
03956  2B88  0D                 .BYTE $0D
03957  2B89  4F 42              .BYTE 'OBJECT FILE (CR OR D:NAME):'
03958  2BA4  A0                 .BYTE $A0       ;SPACE $20 WITH BIT HIGH B
IT SET
03959  2BA5              ;
03960  2BA5  0D          AA23A5 .BYTE $0D
03961  2BA6  48 41              .BYTE 'HARD COPY (CR/Y OR N)?'
03962  2BBC  A0                 .BYTE $A0       ;SPACE $20 WITH BIT HIGH B
IT SET






ASSEMBLERP64......PAGE 0074

LINE# LOC   CODE        LINE


03963  2BBD              ;
03964  2BBD  0D          AA23BD .BYTE $0D
03965  2BBE  43 52              .BYTE 'CROSS REFERENCE (CR/NO OR Y)? '
03966  2BDC  A0                 .BYTE $A0       ;SPACE $20 WITH BIT HIGH B
IT SET
03967  2BDD              ;********************************
03968  2BDD              ; CROSS REFERENCE FILE NAMES
03969  2BDD              ;********************************
03970  2BDD  30 3A       AA23DD .BYTE '0:XRLL0000,S,W'
03971  2BEB  30 3A       AA23EB .BYTE '0:XRFF0000,S,W'
03972  2BF9              ;********************************
03973  2BF9              ; ERROR MESSAGES
03974  2BF9              ;
03975  2BF9              ; FIXED LENGHT 21 $33 CHARS
03976  2BF9              ;********************************
03977  2BF9  55 4E       AA23F9 .BYTE 'UNDEFINED SYMBOL*****'
03978  2C0E  44 55       AA240E .BYTE 'DUPLICATE SYMBOL*****'
03979  2C23  49 4D       AA2423 .BYTE 'IMPROPER OPCODE******'
03980  2C38  49 4E       AA2438 .BYTE 'INVALID ADDRESS******'
03981  2C4D  2E 41       AA244D .BYTE '.A MODE NOT ALLOWED**'
03982  2C62  52 41       AA2462 .BYTE 'RAN OFF END OF CARD**'
03983  2C77  4C 41       AA2477 .BYTE 'LABEL START NEEDS A-Z'
03984  2C8C  4C 41       AA248C .BYTE 'LABEL TOO LONG*******'
03985  2CA1  4E 4F       AA24A1 .BYTE 'NON-ALPHANUMERIC*****'
03986  2CB6  46 4F       AA24B6 .BYTE 'FORWARD REFERENCE****'
03987  2CCB  49 4E       AA24CB .BYTE 'INDEX MUST BE X OR Y*'
03988  2CE0  43 41       AA24E0 .BYTE 'CAN''T EVAL EXPRESSION'
03989  2CF5  55 4E       AA24F5 .BYTE 'UNDEFINED DIRECTIVE**'
03990  2D0A  42 52       AA250A .BYTE 'BRANCH OUT OF RANGE**'
03991  2D1F  49 4C       AA251F .BYTE 'ILLEGAL OPERAND TYPE*'
03992  2D34  49 4E       AA2534 .BYTE 'INDIRECT OUT OF BOUND'
03993  2D49  41 2C       AA2549 .BYTE 'A,X,Y,S,P RESERVED***'
03994  2D5E  50 43       AA255E .BYTE 'PC NEGATIVE--RESET 0*'
03995  2D73  4D 41       AA2573 .BYTE 'MACRO TABLE FULL*****'
03996  2D88  4D 41       AA2588 .BYTE 'MACRO STACK FULL*****'
03997  2D9D  4D 41       AA259D .BYTE 'MACRO STACK EMPTY****'
03998  2DB2  4D 41       AA25B2 .BYTE 'MACRO LABEL ABSENT***'
03999  2DC7  2E 4D       AA25C7 .BYTE '.MAC WITHIN .MAC*****'
04000  2DDC  2E 4D       AA25DC .BYTE '.MND UNMATCHED*******'
04001  2DF1  4D 41       AA25F1 .BYTE 'MACRO NEST TOO DEEP**'
04002  2E06  54 4F       AA2606 .BYTE 'TOO MANY (>9) PARAMS*'
04003  2E1B              ;********************************
04004  2E1B              ; TABLE OF POINTERS TO ERROR MESSAGES
04005  2E1B              ;********************************
04006  2E1B              ; UNDEFINED SYMBOL 
04007  2E1B  F9          XX261B .BYTE <AA23F9   ;$F9
04008  2E1C  2B          XX261C .BYTE >AA23F9   ;$23 ;'#'
04009  2E1D              ; DUPLICATE SYMBOL
04010  2E1D  0E                 .BYTE <AA240E   ;$0E
04011  2E1E  2C                 .BYTE >AA240E   ;$24 ;'$'
04012  2E1F              ; IMPROPER OPCODE
04013  2E1F  23                 .BYTE <AA2423   ;$23 ;'#'
04014  2E20  2C                 .BYTE >AA2423   ;$24 ;'$'
04015  2E21              ; INVALID ADDRESS
04016  2E21  38                 .BYTE <AA2438   ;$38 ;'8'
04017  2E22  2C                 .BYTE >AA2438   ;$24 ;'$'






ASSEMBLERP64......PAGE 0075

LINE# LOC   CODE        LINE


04018  2E23              ; .A MODE NOT ALLOWED
04019  2E23  4D                 .BYTE <AA244D   ;$4D ;'M'
04020  2E24  2C                 .BYTE >AA244D   ;$24 ;'$'
04021  2E25              ; *EMPTY*
04022  2E25  00                 .BYTE $00
04023  2E26  00                 .BYTE $00
04024  2E27              ; RAN OFF END OF CARD
04025  2E27  62                 .BYTE <AA2462   ;$62
04026  2E28  2C                 .BYTE >AA2462   ;$24 ;'$'
04027  2E29              ; LABEL START NEEDS A-Z
04028  2E29  77                 .BYTE <AA2477   ;$77
04029  2E2A  2C                 .BYTE >AA2477   ;$24 ;'$'
04030  2E2B              ; LABEL TOO LONG
04031  2E2B  8C                 .BYTE <AA248C   ;$8C
04032  2E2C  2C                 .BYTE >AA248C   ;$24 ;'$'
04033  2E2D              ; NON-ALPHANUMERIC
04034  2E2D  A1                 .BYTE <AA24A1   ;$A1
04035  2E2E  2C                 .BYTE >AA24A1   ;$24 ;'$'
04036  2E2F              ; FORWARD REFERENCE
04037  2E2F  B6                 .BYTE <AA24B6   ;$B6
04038  2E30  2C                 .BYTE >AA24B6   ;$24 ;'$'
04039  2E31              ; INDEX MUST BE X OR Y
04040  2E31  CB                 .BYTE <AA24CB   ;$CB
04041  2E32  2C                 .BYTE >AA24CB   ;$24 ;'$'
04042  2E33              ; CAN''T EVAL EXPRESSION
04043  2E33  E0                 .BYTE <AA24E0   ;$E0
04044  2E34  2C                 .BYTE >AA24E0   ;$24 ;'$'
04045  2E35              ; UNDEFINED DIRECTIVE
04046  2E35  F5                 .BYTE <AA24F5   ;$F5
04047  2E36  2C                 .BYTE >AA24F5   ;$24 ;'$'
04048  2E37              ; *EMPTY*
04049  2E37  00                 .BYTE $00
04050  2E38  00                 .BYTE $00
04051  2E39              ; *EMPTY*
04052  2E39  00                 .BYTE $00
04053  2E3A  00                 .BYTE $00
04054  2E3B              ; BRANCH OUT OF RANGE
04055  2E3B  0A                 .BYTE <AA250A   ;$0A
04056  2E3C  2D                 .BYTE >AA250A   ;$25 ;'%'
04057  2E3D              ; ILLEGAL OPERAND TYPE
04058  2E3D  1F                 .BYTE <AA251F   ;$1F
04059  2E3E  2D                 .BYTE >AA251F   ;$25 ;'%'
04060  2E3F              ; INDIRECT OUT OF BOUND
04061  2E3F  34                 .BYTE <AA2534   ;$34 ;'4'
04062  2E40  2D                 .BYTE >AA2534   ;$25 ;'%'
04063  2E41              ; A,X,Y,S,P RESERVED
04064  2E41  49                 .BYTE <AA2549   ;$49 ;'I'
04065  2E42  2D                 .BYTE >AA2549   ;$25 ;'%'
04066  2E43              ; PC NEGATIVE--RESET 0
04067  2E43  5E                 .BYTE <AA255E   ;$5E ;'^'
04068  2E44  2D                 .BYTE >AA255E   ;$25 ;'%'
04069  2E45              ; MACRO TABLE FULL
04070  2E45  73                 .BYTE <AA2573   ;$73
04071  2E46  2D                 .BYTE >AA2573   ;$25 ;'%'
04072  2E47              ; MACRO STACK FULL






ASSEMBLERP64......PAGE 0076

LINE# LOC   CODE        LINE


04073  2E47  88                 .BYTE <AA2588   ;$88
04074  2E48  2D                 .BYTE >AA2588   ;$25 ;'%'
04075  2E49              ; MACRO STACK EMPTY
04076  2E49  9D                 .BYTE <AA259D   ;$9D
04077  2E4A  2D                 .BYTE >AA259D   ;$25 ;'%'
04078  2E4B              ; MACRO LABEL ABSENT
04079  2E4B  B2                 .BYTE <AA25B2   ;$B2
04080  2E4C  2D                 .BYTE >AA25B2   ;$25 ;'%'
04081  2E4D              ; .MAC WITHIN .MAC
04082  2E4D  C7                 .BYTE <AA25C7   ;$C7
04083  2E4E  2D                 .BYTE >AA25C7   ;$25 ;'%'
04084  2E4F              ; .MND UNMATCHED
04085  2E4F  DC                 .BYTE <AA25DC   ;$DC
04086  2E50  2D                 .BYTE >AA25DC   ;$25 ;'%'
04087  2E51              ; MACRO NEST TOO DEEP
04088  2E51  F1                 .BYTE <AA25F1   ;$F1
04089  2E52  2D                 .BYTE >AA25F1   ;$25 ;'%'
04090  2E53              ; TOO MANY (>9) PARAMS
04091  2E53  06                 .BYTE <AA2606   ;$06
04092  2E54  2E                 .BYTE >AA2606   ;$26 ;'&'
04093  2E55              ;********************************
04094  2E55              ;
04095  2E55              ;********************************
04096  2E55  01          XX2655 .BYTE $01
04097  2E56  0A                 .BYTE $0A
04098  2E57  64                 .BYTE $64
04099  2E58  E8                 .BYTE $E8
04100  2E59  10                 .BYTE $10
04101  2E5A              ;********************************
04102  2E5A              ;
04103  2E5A              ;********************************
04104  2E5A  00          XX265A .BYTE $00
04105  2E5B  00                 .BYTE $00
04106  2E5C  00                 .BYTE $00
04107  2E5D  03                 .BYTE $03
04108  2E5E  27                 .BYTE $27       ;'''
04109  2E5F              ;********************************
04110  2E5F              .END
04111  2E5F              ;********************************
04112  2E5F              ;.END
04113  2E5F              ;*=$265F
04114  2E5F              ;********************************
04115  2E5F  84 04       XX265F STY $04
04116  2E61  86 05              STX $05
04117  2E63  AD 7F 10    XX2663 LDA XX087F
04118  2E66  29 10              AND #$10
04119  2E68  F0 03              BEQ XX266D
04120  2E6A  4C 11 2F           JMP XX2711
04121  2E6D              ;********************************
04122  2E6D  AD 7F 10    XX266D LDA XX087F
04123  2E70  29 20              AND #$20        ;' '
04124  2E72  D0 47              BNE XX26BB
04125  2E74                                     ;BIT XX087F
04126  2E74  2C          BB2674 .BYTE $2C
04127  2E75  7F          BB2675 .BYTE <XX087F   ;$7F ; RRA #$08






ASSEMBLERP64......PAGE 0077

LINE# LOC   CODE        LINE


04128  2E76  10                 .BYTE >XX087F   ;$08
04129  2E77              ;
04130  2E77  70 33              BVS XX26AC
04131  2E79  A2 02              LDX #$02
04132  2E7B  EC 39 10           CPX XX0839
04133  2E7E  F0 0B              BEQ XX268B
04134  2E80  20 CC FF           JSR CLRCHN
04135  2E83  A2 02              LDX #$02
04136  2E85  8E 39 10    XX2685 STX XX0839
04137  2E88  20 C6 FF           JSR CHKIN
04138  2E8B  20 CF FF    XX268B JSR CHRIN
04139  2E8E  A6 90              LDX $90
04140  2E90  F0 15              BEQ XX26A7
04141  2E92  A8                 TAY 
04142  2E93  8A                 TXA 
04143  2E94  29 40              AND #$40        ;'@'
04144  2E96  D0 09              BNE XX26A1
04145  2E98  20 CC FF           JSR CLRCHN
04146  2E9B  20 FE 2F           JSR XX27FE
04147  2E9E  4C AD 2F           JMP XX27AD
04148  2EA1              ;********************************
04149  2EA1  A9 00       XX26A1 LDA #$00
04150  2EA3  8D 4B 10           STA XX084B
04151  2EA6  98                 TYA 
04152  2EA7  A4 04       XX26A7 LDY $04
04153  2EA9  A6 05              LDX $05
04154  2EAB  60                 RTS 
04155  2EAC              ;********************************
04156  2EAC  A2 03       XX26AC LDX #$03
04157  2EAE  EC 39 10           CPX XX0839
04158  2EB1  F0 D8              BEQ XX268B
04159  2EB3  20 CC FF           JSR CLRCHN
04160  2EB6  A2 03              LDX #$03
04161  2EB8  4C 85 2E           JMP XX2685
04162  2EBB              ;********************************
04163  2EBB  20 34 2F    XX26BB JSR XX2734
04164  2EBE  D0 06              BNE XX26C6
04165  2EC0  20 40 35           JSR XX2D40
04166  2EC3  4C 63 2E           JMP XX2663
04167  2EC6              ;********************************
04168  2EC6  C9 3F       XX26C6 CMP #$3F        ;'?'
04169  2EC8  D0 DD       XX26C8 BNE XX26A7
04170  2ECA  20 34 2F           JSR XX2734
04171  2ECD  38                 SEC 
04172  2ECE  E9 30              SBC #$30        ;'0'
04173  2ED0  20 CE 34           JSR XX2CCE
04174  2ED3  A0 00              LDY #$00
04175  2ED5  B1 10              LDA ($10),Y
04176  2ED7  8D 8D 11           STA XX098D
04177  2EDA  C8                 INY 
04178  2EDB  B1 10              LDA ($10),Y
04179  2EDD  8D 8E 11           STA XX098E
04180  2EE0  0D 8D 11           ORA XX098D
04181  2EE3  D0 24              BNE XX2709
04182  2EE5  A5 10              LDA $10






ASSEMBLERP64......PAGE 0078

LINE# LOC   CODE        LINE


04183  2EE7  8D 7A 11           STA XX097A
04184  2EEA  A5 11              LDA $11
04185  2EEC  8D 7B 11           STA XX097B
04186  2EEF  20 4B 2F           JSR XX274B
04187  2EF2  AD 7A 11           LDA XX097A
04188  2EF5  85 10              STA $10
04189  2EF7  AD 7B 11           LDA XX097B
04190  2EFA  85 11              STA $11
04191  2EFC  A0 00              LDY #$00
04192  2EFE  AD 8D 11           LDA XX098D
04193  2F01  91 10              STA ($10),Y
04194  2F03  C8                 INY 
04195  2F04  AD 8E 11           LDA XX098E
04196  2F07  91 10              STA ($10),Y
04197  2F09  AD 7F 10    XX2709 LDA XX087F
04198  2F0C  09 10              ORA #$10
04199  2F0E  8D 7F 10           STA XX087F
04200  2F11  AD 8D 11    XX2711 LDA XX098D
04201  2F14  85 10              STA $10
04202  2F16  AD 8E 11           LDA XX098E
04203  2F19  85 11              STA $11
04204  2F1B  EE 8D 11           INC XX098D
04205  2F1E  D0 03              BNE XX2723
04206  2F20  EE 8E 11           INC XX098E
04207  2F23  A0 00       XX2723 LDY #$00
04208  2F25  B1 10              LDA ($10),Y
04209  2F27  D0 9F              BNE XX26C8
04210  2F29  AD 7F 10           LDA XX087F
04211  2F2C  29 EF              AND #$EF
04212  2F2E  8D 7F 10           STA XX087F
04213  2F31  4C 63 2E           JMP XX2663
04214  2F34              ;********************************
04215  2F34  AD 87 11    XX2734 LDA XX0987
04216  2F37  85 10              STA $10
04217  2F39  AD 88 11           LDA XX0988
04218  2F3C  85 11              STA $11
04219  2F3E  EE 87 11           INC XX0987
04220  2F41  D0 03              BNE XX2746
04221  2F43  EE 88 11           INC XX0988
04222  2F46  A0 00       XX2746 LDY #$00
04223  2F48  B1 10              LDA ($10),Y
04224  2F4A  60                 RTS 
04225  2F4B              ;********************************
04226  2F4B  A2 03       XX274B LDX #$03
04227  2F4D  FE 89 11    XX274D INC XX0989,X
04228  2F50  BD 89 11           LDA XX0989,X
04229  2F53  C9 3A              CMP #$3A        ;':'
04230  2F55  D0 08              BNE XX275F
04231  2F57  A9 30              LDA #$30        ;'0'
04232  2F59  9D 89 11           STA XX0989,X
04233  2F5C  CA                 DEX 
04234  2F5D  D0 EE              BNE XX274D
04235  2F5F  AD 78 11    XX275F LDA XX0978
04236  2F62  8D 8D 11           STA XX098D
04237  2F65  AD 79 11           LDA XX0979






ASSEMBLERP64......PAGE 0079

LINE# LOC   CODE        LINE


04238  2F68  8D 8E 11           STA XX098E
04239  2F6B  A0 00              LDY #$00
04240  2F6D  B9 89 11    XX276D LDA XX0989,Y
04241  2F70  20 F1 31           JSR XX29F1
04242  2F73  C8                 INY 
04243  2F74  C0 04              CPY #$04
04244  2F76  90 F5              BCC XX276D
04245  2F78  A9 00              LDA #$00
04246  2F7A  20 F1 31           JSR XX29F1
04247  2F7D  60                 RTS 
04248  2F7E              ;********************************
04249  2F7E  A9 0D       XX277E LDA #$0D
04250  2F80  86 05       XX2780 STX $05
04251  2F82  84 04              STY $04
04252  2F84  48                 PHA 
04253  2F85                                     ;BIT XX0873
04254  2F85  2C          BB2785 .BYTE $2C
04255  2F86  73          BB2786 .BYTE <XX0873   ;$73 ; RRA $08
04256  2F87  10                 .BYTE >XX0873   ;$08
04257  2F88              ;
04258  2F88  10 1C              BPL XX27A6
04259  2F8A  AD 39 10           LDA XX0839
04260  2F8D  C9 04              CMP #$04
04261  2F8F  F0 0B              BEQ XX279C
04262  2F91  20 CC FF           JSR CLRCHN
04263  2F94  A2 04              LDX #$04
04264  2F96  8E 39 10           STX XX0839
04265  2F99  20 C9 FF           JSR CHKOUT
04266  2F9C  68          XX279C PLA 
04267  2F9D  48                 PHA 
04268  2F9E  20 D2 FF           JSR CHROUT
04269  2FA1  AE 72 10           LDX XX0872
04270  2FA4  F0 03              BEQ XX27A9
04271  2FA6              ; MAIN CHROUT ENTRY POINT
04272  2FA6  20 49 DC    XX27A6 JSR CHROUE; $E716
04273  2FA9  68          XX27A9 PLA 
04274  2FAA  4C A7 2E           JMP XX26A7
04275  2FAD              ;********************************
04276  2FAD  20 CC FF    XX27AD JSR CLRCHN
04277  2FB0  A9 01              LDA #$01
04278  2FB2  20 C3 FF           JSR CLOSE
04279  2FB5  A9 04              LDA #$04
04280  2FB7  20 C3 FF           JSR CLOSE
04281  2FBA  A9 05              LDA #$05
04282  2FBC  20 C3 FF           JSR CLOSE
04283  2FBF  AD 74 11           LDA XX0974
04284  2FC2  D0 08              BNE XX27CC
04285  2FC4  20 91 31           JSR XX2991
04286  2FC7  A9 06              LDA #$06
04287  2FC9  20 C3 FF           JSR CLOSE
04288  2FCC  A9 07       XX27CC LDA #$07
04289  2FCE  20 C3 FF           JSR CLOSE
04290  2FD1  20 CC FF           JSR CLRCHN
04291  2FD4  4C 71 30           JMP XX2871
04292  2FD7              ;********************************






ASSEMBLERP64......PAGE 0080

LINE# LOC   CODE        LINE


04293  2FD7  20 E1 FF    XX27D7 JSR STOP
04294  2FDA  F0 01              BEQ XX27DD
04295  2FDC  60                 RTS 
04296  2FDD              ;********************************
04297  2FDD  20 6D 13    XX27DD JSR XX0B6D
04298  2FE0  78                 SEI 
04299  2FE1  20 CC FF           JSR CLRCHN
04300  2FE4  A9 00              LDA #$00
04301  2FE6  8D 39 10           STA XX0839
04302  2FE9  85 C6              STA $C6
04303  2FEB  58                 CLI 
04304  2FEC  20 E4 FF    XX27EC JSR GETIN
04305  2FEF  09 00              ORA #$00
04306  2FF1  F0 F9              BEQ XX27EC
04307  2FF3  C9 42              CMP #$42        ;'B'
04308  2FF5  F0 04              BEQ XX27FB
04309  2FF7  20 5F 13           JSR XX0B5F
04310  2FFA  60                 RTS 
04311  2FFB              ;********************************
04312  2FFB  4C AD 2F    XX27FB JMP XX27AD
04313  2FFE              ;********************************
04314  2FFE              ; READ DISK ERROR STATUS
04315  2FFE              ;********************************
04316  2FFE  20 CC FF    XX27FE JSR CLRCHN
04317  3001  A2 07              LDX #$07
04318  3003  8E 39 10           STX XX0839
04319  3006  20 C6 FF           JSR CHKIN
04320  3009  20 CF FF           JSR CHRIN
04321  300C  85 12              STA $12
04322  300E  20 CF FF           JSR CHRIN
04323  3011  85 13              STA $13
04324  3013  C9 30              CMP #$30        ;'0'
04325  3015  D0 0E              BNE XX2825
04326  3017  A5 12              LDA $12
04327  3019  C9 30              CMP #$30        ;'0'
04328  301B  D0 08              BNE XX2825
04329  301D  20 CF FF    XX281D JSR CHRIN
04330  3020  C9 0D              CMP #$0D
04331  3022  D0 F9              BNE XX281D
04332  3024  60                 RTS 
04333  3025              ;********************************
04334  3025              ; READ DISK ERROR
04335  3025              ;********************************
04336  3025  A2 01       XX2825 LDX #$01
04337  3027  B5 12       XX2827 LDA $12,X
04338  3029  9D D0 10           STA XX08D0,X
04339  302C  CA                 DEX 
04340  302D  10 F8              BPL XX2827
04341  302F  A0 02              LDY #$02
04342  3031  84 04       XX2831 STY $04
04343  3033  20 CF FF           JSR CHRIN
04344  3036  C9 0D              CMP #$0D
04345  3038  F0 08              BEQ XX2842
04346  303A  A4 04              LDY $04
04347  303C  99 D0 10           STA XX08D0,Y






ASSEMBLERP64......PAGE 0081

LINE# LOC   CODE        LINE


04348  303F  C8                 INY 
04349  3040  D0 EF              BNE XX2831
04350  3042  A9 8D       XX2842 LDA #$8D
04351  3044  99 D0 10           STA XX08D0,Y
04352  3047  A9 10              LDA #>XX08D0    ;#$08
04353  3049  A0 D0              LDY #<XX08D0    ;#$D0
04354  304B  20 68 14           JSR XX0C68
04355  304E  A4 B7              LDY $B7
04356  3050  A9 8D              LDA #$8D
04357  3052  91 BB              STA ($BB),Y
04358  3054  A5 BC              LDA $BC
04359  3056  A4 BB              LDY $BB
04360  3058  20 68 14           JSR XX0C68
04361  305B  4C 71 30           JMP XX2871
04362  305E              ;********************************
04363  305E  86 05       XX285E STX $05
04364  3060  A6 05       XX2860 LDX $05
04365  3062  BD 8C 2A           LDA XX228C,X
04366  3065  08                 PHP 
04367  3066  29 7F              AND #$7F
04368  3068  20 80 2F           JSR XX2780
04369  306B  E6 05              INC $05
04370  306D  28                 PLP 
04371  306E  10 F0              BPL XX2860
04372  3070  60                 RTS 
04373  3071              ;********************************
04374  3071  20 6D 13    XX2871 JSR XX0B6D
04375  3074  20 85 30           JSR XX2885
04376  3077  4C 7E 86           JMP BASICW      ;$E386
04377  307A              ;********************************
04378  307A  A2 1E       XX287A LDX #$1E
04379  307C  B5 02       XX287C LDA $02,X
04380  307E  9D 1A 10           STA XX081A,X
04381  3081  CA                 DEX 
04382  3082  10 F8              BPL XX287C
04383  3084  60                 RTS 
04384  3085              ;********************************
04385  3085  A2 1E       XX2885 LDX #$1E
04386  3087  BD 1A 10    XX2887 LDA XX081A,X
04387  308A  95 02              STA $02,X
04388  308C  CA                 DEX 
04389  308D  10 F8              BPL XX2887
04390  308F  60                 RTS 
04391  3090              ;********************************
04392  3090  86 05       XX2890 STX $05
04393  3092  20 98 30           JSR XX2898
04394  3095  A6 05              LDX $05
04395  3097  60                 RTS 
04396  3098              ;********************************
04397  3098  48          XX2898 PHA 
04398  3099  99 18 11           STA XX0918,Y
04399  309C  AD 74 11           LDA XX0974
04400  309F  D0 05              BNE XX28A6
04401  30A1  AD 66 10           LDA XX0866
04402  30A4  D0 02              BNE XX28A8






ASSEMBLERP64......PAGE 0082

LINE# LOC   CODE        LINE


04403  30A6  68          XX28A6 PLA 
04404  30A7  60          XX28A7 RTS 
04405  30A8              ;********************************
04406  30A8  AD 74 10    XX28A8 LDA XX0874
04407  30AB  29 08              AND #$08
04408  30AD  F0 F7              BEQ XX28A6
04409  30AF  98                 TYA 
04410  30B0  18                 CLC 
04411  30B1  65 06              ADC $06
04412  30B3  4D 42 11           EOR XX0942
04413  30B6  D0 07              BNE XX28BF
04414  30B8  65 07              ADC $07
04415  30BA  CD 43 11           CMP XX0943
04416  30BD  F0 0B              BEQ XX28CA
04417  30BF  AD 46 11    XX28BF LDA XX0946
04418  30C2  F0 03              BEQ XX28C7
04419  30C4  20 28 31           JSR XX2928
04420  30C7  20 FA 30    XX28C7 JSR XX28FA
04421  30CA  AE 46 11    XX28CA LDX XX0946
04422  30CD  68                 PLA 
04423  30CE  9D 49 11           STA XX0949,X
04424  30D1  EE 46 11           INC XX0946
04425  30D4  18                 CLC 
04426  30D5  6D 40 11           ADC XX0940
04427  30D8  8D 40 11           STA XX0940
04428  30DB  90 03              BCC XX28E0
04429  30DD  EE 41 11           INC XX0941
04430  30E0  EE 42 11    XX28E0 INC XX0942
04431  30E3  D0 03              BNE XX28E8
04432  30E5  EE 43 11           INC XX0943
04433  30E8  E0 17       XX28E8 CPX #$17
04434  30EA  90 BB              BCC XX28A7
04435  30EC  20 28 31           JSR XX2928
04436  30EF  4C 04 31           JMP XX2904
04437  30F2              ;********************************
04438  30F2  A9 00       XX28F2 LDA #$00
04439  30F4  8D 44 11           STA XX0944
04440  30F7  8D 45 11           STA XX0945
04441  30FA  A5 06       XX28FA LDA $06
04442  30FC  8D 42 11           STA XX0942
04443  30FF  A5 07              LDA $07
04444  3101  8D 43 11           STA XX0943
04445  3104  A9 00       XX2904 LDA #$00
04446  3106  8D 46 11           STA XX0946
04447  3109  8D 41 11           STA XX0941
04448  310C  AD 42 11           LDA XX0942
04449  310F  8D 48 11           STA XX0948
04450  3112  8D 40 11           STA XX0940
04451  3115  AD 43 11           LDA XX0943
04452  3118  8D 47 11           STA XX0947
04453  311B  18                 CLC 
04454  311C  6D 40 11           ADC XX0940
04455  311F  8D 40 11           STA XX0940
04456  3122  90 03              BCC XX2927
04457  3124  EE 41 11           INC XX0941






ASSEMBLERP64......PAGE 0083

LINE# LOC   CODE        LINE


04458  3127  60          XX2927 RTS 
04459  3128              ;********************************
04460  3128  EE 44 11    XX2928 INC XX0944
04461  312B  D0 03              BNE XX2930
04462  312D  EE 45 11           INC XX0945
04463  3130  A2 00       XX2930 LDX #$00
04464  3132  86 05              STX $05
04465  3134  AD 46 11           LDA XX0946
04466  3137  18                 CLC 
04467  3138  69 03              ADC #$03
04468  313A  85 04              STA $04
04469  313C  A9 3B              LDA #$3B        ;';'
04470  313E  20 7A 31           JSR XX297A
04471  3141  A6 05       XX2941 LDX $05
04472  3143  BD 46 11           LDA XX0946,X
04473  3146  20 69 31           JSR XX2969
04474  3149  E6 05              INC $05
04475  314B  A4 04              LDY $04
04476  314D  C4 05              CPY $05
04477  314F  D0 F0              BNE XX2941
04478  3151  AD 46 11           LDA XX0946
04479  3154  18                 CLC 
04480  3155  6D 40 11           ADC XX0940
04481  3158  48                 PHA 
04482  3159  A9 00              LDA #$00
04483  315B  6D 41 11           ADC XX0941
04484  315E  20 69 31           JSR XX2969
04485  3161  68                 PLA 
04486  3162  20 69 31           JSR XX2969
04487  3165  A9 0D              LDA #$0D
04488  3167  D0 11              BNE XX297A
04489  3169  48          XX2969 PHA 
04490  316A  4A                 LSR A
04491  316B  4A                 LSR A
04492  316C  4A                 LSR A
04493  316D  4A                 LSR A
04494  316E  20 AB 31           JSR XX29AB
04495  3171  20 7A 31           JSR XX297A
04496  3174  68                 PLA 
04497  3175  29 0F              AND #$0F
04498  3177  20 AB 31           JSR XX29AB
04499  317A  48          XX297A PHA 
04500  317B  AD 39 10           LDA XX0839
04501  317E  C9 06              CMP #$06
04502  3180  F0 0B              BEQ XX298D
04503  3182  20 CC FF           JSR CLRCHN
04504  3185  A2 06              LDX #$06
04505  3187  8E 39 10           STX XX0839
04506  318A  20 C9 FF           JSR CHKOUT
04507  318D  68          XX298D PLA 
04508  318E  4C D2 FF           JMP CHROUT
04509  3191              ;********************************
04510  3191  AD 46 11    XX2991 LDA XX0946
04511  3194  F0 03              BEQ XX2999
04512  3196  20 28 31           JSR XX2928






ASSEMBLERP64......PAGE 0084

LINE# LOC   CODE        LINE


04513  3199  AD 44 11    XX2999 LDA XX0944
04514  319C  8D 42 11           STA XX0942
04515  319F  AD 45 11           LDA XX0945
04516  31A2  8D 43 11           STA XX0943
04517  31A5  20 04 31           JSR XX2904
04518  31A8  4C 28 31           JMP XX2928
04519  31AB              ;********************************
04520  31AB  18          XX29AB CLC 
04521  31AC  69 F6              ADC #$F6
04522  31AE  90 02              BCC XX29B2
04523  31B0  69 06              ADC #$06
04524  31B2  69 3A       XX29B2 ADC #$3A        ;':'
04525  31B4  60                 RTS 
04526  31B5              ;********************************
04527  31B5  8E 7F 11    XX29B5 STX XX097F
04528  31B8  AE 76 11           LDX XX0976
04529  31BB  86 10              STX $10
04530  31BD  AE 77 11           LDX XX0977
04531  31C0  86 11              STX $11
04532  31C2  A2 00              LDX #$00
04533  31C4  81 10              STA ($10,X)
04534  31C6  AE 7F 11           LDX XX097F
04535  31C9  60                 RTS 
04536  31CA              ;********************************
04537  31CA  48          XX29CA PHA 
04538  31CB  AD 66 10           LDA XX0866
04539  31CE  F0 02              BEQ XX29D2
04540  31D0  68                 PLA 
04541  31D1  60                 RTS 
04542  31D2              ;********************************
04543  31D2  68          XX29D2 PLA 
04544  31D3  20 B5 31           JSR XX29B5
04545  31D6  EE 76 11           INC XX0976
04546  31D9  D0 03              BNE XX29DE
04547  31DB  EE 77 11           INC XX0977
04548  31DE  38          XX29DE SEC 
04549  31DF  AD 76 11           LDA XX0976
04550  31E2  E9 FF              SBC #$FF
04551  31E4  AD 77 11           LDA XX0977
04552  31E7              ; SOME KIND OF OFFSET
04553  31E7  E9 9B              SBC #$9B
04554  31E9  B0 01              BCS XX29EC
04555  31EB  60                 RTS 
04556  31EC              ;********************************
04557  31EC  A9 22       XX29EC LDA #$22        ;'"'
04558  31EE  4C 34 34    XX29EE JMP XX2C34
04559  31F1              ;********************************
04560  31F1  48          XX29F1 PHA 
04561  31F2  AD 78 11           LDA XX0978
04562  31F5  85 10              STA $10
04563  31F7  AD 79 11           LDA XX0979
04564  31FA  85 11              STA $11
04565  31FC  68                 PLA 
04566  31FD  8E 7F 11           STX XX097F
04567  3200  A2 00              LDX #$00






ASSEMBLERP64......PAGE 0085

LINE# LOC   CODE        LINE


04568  3202  81 10              STA ($10,X)
04569  3204  AE 7F 11           LDX XX097F
04570  3207  EE 78 11           INC XX0978
04571  320A  AD 78 11           LDA XX0978
04572  320D  E9 FF              SBC #$FF
04573  320F  AD 79 11           LDA XX0979
04574  3212              ; SOME KIND OF OFFSET
04575  3212  E9 9F              SBC #$9F
04576  3214  B0 01              BCS XX2A17
04577  3216  60                 RTS 
04578  3217              ;********************************
04579  3217  A9 23       XX2A17 LDA #$23        ;'#'
04580  3219  4C 34 34           JMP XX2C34
04581  321C              ;********************************
04582  321C  AD 63 10    WW2A1C LDA XX0863
04583  321F  F0 05              BEQ XX2A26
04584  3221  A9 25              LDA #$25        ;'%'
04585  3223  4C 47 34           JMP XX2C47
04586  3226              ;********************************
04587  3226  AD 6A 10    XX2A26 LDA XX086A
04588  3229  8D 6E 10           STA XX086E
04589  322C  EE 6E 10           INC XX086E
04590  322F  20 AC 33           JSR XX2BAC
04591  3232  90 05              BCC XX2A39
04592  3234  A9 18       XX2A34 LDA #$18
04593  3236  4C 47 34           JMP XX2C47
04594  3239              ;********************************
04595  3239  AE 6E 10    XX2A39 LDX XX086E
04596  323C  20 75 1E           JSR XX1675
04597  323F  90 F3              BCC XX2A34
04598  3241  AD 6B 10           LDA XX086B
04599  3244  C9 03              CMP #$03
04600  3246  D0 0A              BNE XX2A52
04601  3248  20 33 23           JSR XX1B33
04602  324B  90 05              BCC XX2A52
04603  324D  A9 03              LDA #$03
04604  324F  4C 47 34           JMP XX2C47
04605  3252              ;********************************
04606  3252  20 CB 35    XX2A52 JSR XX2DCB
04607  3255  20 F8 21           JSR XX19F8
04608  3258  90 0A              BCC XX2A64
04609  325A  AD 66 10           LDA XX0866
04610  325D  D0 39              BNE XX2A98
04611  325F  A9 02              LDA #$02
04612  3261  4C 47 34           JMP XX2C47
04613  3264              ;********************************
04614  3264  A9 FF       XX2A64 LDA #$FF
04615  3266  8D 53 10           STA XX0853
04616  3269  8D 54 10           STA XX0854
04617  326C  20 CC 22           JSR XX1ACC
04618  326F  AD 76 11           LDA XX0976
04619  3272  8D 7A 11           STA XX097A
04620  3275  AD 77 11           LDA XX0977
04621  3278  8D 7B 11           STA XX097B
04622  327B  A0 00              LDY #$00






ASSEMBLERP64......PAGE 0086

LINE# LOC   CODE        LINE


04623  327D  B1 1A       XX2A7D LDA ($1A),Y
04624  327F  20 CA 31           JSR XX29CA
04625  3282  C8                 INY 
04626  3283  C0 06              CPY #$06
04627  3285  D0 F6              BNE XX2A7D
04628  3287  A0 14              LDY #$14
04629  3289  A9 00       XX2A89 LDA #$00
04630  328B  20 CA 31           JSR XX29CA
04631  328E  88                 DEY 
04632  328F  D0 F8              BNE XX2A89
04633  3291  F0 05              BEQ XX2A98
04634  3293  A9 0D       XX2A93 LDA #$0D
04635  3295  20 CA 31           JSR XX29CA
04636  3298  20 6B 34    XX2A98 JSR XX2C6B
04637  329B  20 EB 14           JSR XX0CEB
04638  329E  90 03              BCC XX2AA3
04639  32A0  4C 35 19           JMP XX1135
04640  32A3              ;********************************
04641  32A3  A2 FF       XX2AA3 LDX #$FF
04642  32A5  8E 6E 10           STX XX086E
04643  32A8  20 3F 33    XX2AA8 JSR XX2B3F
04644  32AB  90 E6              BCC XX2A93
04645  32AD  C9 2E              CMP #$2E        ;'.'
04646  32AF  F0 06              BEQ XX2AB7
04647  32B1  20 CA 31    XX2AB1 JSR XX29CA
04648  32B4  4C A8 32           JMP XX2AA8
04649  32B7              ;********************************
04650  32B7  AD 76 11    XX2AB7 LDA XX0976
04651  32BA  8D 7C 11           STA XX097C
04652  32BD  AD 77 11           LDA XX0977
04653  32C0  8D 7D 11           STA XX097D
04654  32C3  20 CA 31           JSR XX29CA
04655  32C6  A0 00              LDY #$00
04656  32C8  20 3F 33    XX2AC8 JSR XX2B3F
04657  32CB  90 C6              BCC XX2A93
04658  32CD  8D 7E 11           STA XX097E
04659  32D0  20 CA 31           JSR XX29CA
04660  32D3  AD 7E 11           LDA XX097E
04661  32D6  D9 66 28           CMP XX2066,Y
04662  32D9  F0 22              BEQ XX2AFD
04663  32DB  C0 01              CPY #$01
04664  32DD  D0 B4              BNE XX2A93
04665  32DF  C9 41              CMP #$41        ;'A'
04666  32E1  D0 C5              BNE XX2AA8
04667  32E3  20 3F 33           JSR XX2B3F
04668  32E6  90 AB              BCC XX2A93
04669  32E8  C9 43              CMP #$43        ;'C'
04670  32EA  D0 C5              BNE XX2AB1
04671  32EC  AD 7A 11           LDA XX097A
04672  32EF  8D 76 11           STA XX0976
04673  32F2  AD 7B 11           LDA XX097B
04674  32F5  8D 77 11           STA XX0977
04675  32F8  A9 26              LDA #$26        ;'&'
04676  32FA  4C 47 34           JMP XX2C47
04677  32FD              ;********************************






ASSEMBLERP64......PAGE 0087

LINE# LOC   CODE        LINE


04678  32FD  C8          XX2AFD INY 
04679  32FE  C0 03              CPY #$03
04680  3300  D0 C6              BNE XX2AC8
04681  3302  AD 66 10           LDA XX0866
04682  3305  D0 2D              BNE XX2B34
04683  3307  AD 7C 11           LDA XX097C
04684  330A  8D 76 11           STA XX0976
04685  330D  AD 7D 11           LDA XX097D
04686  3310  8D 77 11           STA XX0977
04687  3313  A9 0D              LDA #$0D
04688  3315  20 CA 31           JSR XX29CA
04689  3318  A9 00              LDA #$00
04690  331A  20 CA 31           JSR XX29CA
04691  331D  AD 7A 11           LDA XX097A
04692  3320  85 10              STA $10
04693  3322  AD 7B 11           LDA XX097B
04694  3325  85 11              STA $11
04695  3327  A0 06              LDY #$06
04696  3329  AD 76 11           LDA XX0976
04697  332C  91 10              STA ($10),Y
04698  332E  AD 77 11           LDA XX0977
04699  3331  C8                 INY 
04700  3332  91 10              STA ($10),Y
04701  3334  20 6B 34    XX2B34 JSR XX2C6B
04702  3337  4C CB 1D           JMP XX15CB
04703  333A              ;********************************
04704  333A  A9 27       WW2B3A LDA #$27        ;'''
04705  333C  4C 47 34           JMP XX2C47
04706  333F              ;********************************
04707  333F  AE 6E 10    XX2B3F LDX XX086E
04708  3342  E8                 INX 
04709  3343  8E 6E 10           STX XX086E
04710  3346  AD 77 10           LDA XX0877
04711  3349  CD 6E 10           CMP XX086E
04712  334C  B0 02              BCS XX2B50
04713  334E  18                 CLC 
04714  334F  60                 RTS 
04715  3350              ;********************************
04716  3350  BD 80 10    XX2B50 LDA XX0880,X
04717  3353  38                 SEC 
04718  3354  60                 RTS 
04719  3355              ;********************************
04720  3355  A9 00       XX2B55 LDA #$00
04721  3357  85 10              STA $10
04722  3359              ; SOME KIND OF OFFSET
04723  3359  A9 88              LDA #$88
04724  335B  85 11              STA $11
04725  335D  38          XX2B5D SEC 
04726  335E  A5 10              LDA $10
04727  3360  ED 76 11           SBC XX0976
04728  3363  A5 11              LDA $11
04729  3365  ED 77 11           SBC XX0977
04730  3368  90 02              BCC XX2B6C
04731  336A  18                 CLC 
04732  336B  60                 RTS 






ASSEMBLERP64......PAGE 0088

LINE# LOC   CODE        LINE


04733  336C              ;********************************
04734  336C  A0 05       XX2B6C LDY #$05
04735  336E  B1 10       XX2B6E LDA ($10),Y
04736  3370  D9 08 11           CMP XX0908,Y
04737  3373  D0 05              BNE XX2B7A
04738  3375  88                 DEY 
04739  3376  10 F6              BPL XX2B6E
04740  3378  38                 SEC 
04741  3379  60                 RTS 
04742  337A              ;********************************
04743  337A  A0 06       XX2B7A LDY #$06
04744  337C  B1 10              LDA ($10),Y
04745  337E  AA                 TAX 
04746  337F  C8                 INY 
04747  3380  B1 10              LDA ($10),Y
04748  3382  85 11              STA $11
04749  3384  86 10              STX $10
04750  3386  4C 5D 33           JMP XX2B5D
04751  3389              ;********************************
04752  3389  A5 10       XX2B89 LDA $10
04753  338B  8D 80 11           STA XX0980
04754  338E  A5 11              LDA $11
04755  3390  8D 81 11           STA XX0981
04756  3393  20 6B 34           JSR XX2C6B
04757  3396  20 EE 34           JSR XX2CEE
04758  3399  AD 80 11           LDA XX0980
04759  339C  85 10              STA $10
04760  339E  AD 81 11           LDA XX0981
04761  33A1  85 11              STA $11
04762  33A3  20 A9 35           JSR XX2DA9
04763  33A6  20 F9 33           JSR XX2BF9
04764  33A9  4C CB 1D           JMP XX15CB
04765  33AC              ;********************************
04766  33AC  20 D1 1D    XX2BAC JSR XX15D1
04767  33AF  B0 02              BCS XX2BB3
04768  33B1  38          XX2BB1 SEC 
04769  33B2  60                 RTS 
04770  33B3              ;********************************
04771  33B3  AE 6E 10    XX2BB3 LDX XX086E
04772  33B6  A0 00              LDY #$00
04773  33B8  BD 80 10           LDA XX0880,X
04774  33BB  C9 3B              CMP #$3B        ;';'
04775  33BD  F0 F2              BEQ XX2BB1
04776  33BF  20 75 1E    XX2BBF JSR XX1675
04777  33C2  B0 05              BCS XX2BC9
04778  33C4  20 82 1E           JSR XX1682
04779  33C7  90 0F              BCC XX2BD8
04780  33C9  99 08 11    XX2BC9 STA XX0908,Y
04781  33CC  E8                 INX 
04782  33CD  C8                 INY 
04783  33CE  BD 80 10           LDA XX0880,X
04784  33D1  EC 77 10           CPX XX0877
04785  33D4  F0 E9              BEQ XX2BBF
04786  33D6  90 E7              BCC XX2BBF
04787  33D8  C0 00       XX2BD8 CPY #$00






ASSEMBLERP64......PAGE 0089

LINE# LOC   CODE        LINE


04788  33DA  F0 D5              BEQ XX2BB1
04789  33DC  C0 07              CPY #$07
04790  33DE  90 05              BCC XX2BE5
04791  33E0  A9 09              LDA #$09
04792  33E2  4C 47 34           JMP XX2C47
04793  33E5              ;********************************
04794  33E5  A9 20       XX2BE5 LDA #$20        ;' '
04795  33E7  8C 6B 10           STY XX086B
04796  33EA  C0 06       XX2BEA CPY #$06
04797  33EC  B0 06              BCS XX2BF4
04798  33EE  99 08 11           STA XX0908,Y
04799  33F1  C8                 INY 
04800  33F2  D0 F6              BNE XX2BEA
04801  33F4  18          XX2BF4 CLC 
04802  33F5  8E 6A 10           STX XX086A
04803  33F8  60                 RTS 
04804  33F9              ;********************************
04805  33F9  A9 01       XX2BF9 LDA #$01
04806  33FB  20 CE 34           JSR XX2CCE
04807  33FE  A0 11              LDY #$11
04808  3400  A9 00              LDA #$00
04809  3402  91 10       XX2C02 STA ($10),Y
04810  3404  88                 DEY 
04811  3405  10 FB              BPL XX2C02
04812  3407  8D 82 11           STA XX0982
04813  340A  20 D1 1D           JSR XX15D1
04814  340D  90 21              BCC XX2C30
04815  340F  AD 78 11           LDA XX0978
04816  3412  8D 80 11           STA XX0980
04817  3415  AD 79 11           LDA XX0979
04818  3418  8D 81 11           STA XX0981
04819  341B  20 4F 34    XX2C1B JSR XX2C4F
04820  341E  90 10              BCC XX2C30
04821  3420  C9 2C              CMP #$2C        ;','
04822  3422  F0 06              BEQ XX2C2A
04823  3424  20 F1 31           JSR XX29F1
04824  3427  4C 1B 34           JMP XX2C1B
04825  342A              ;********************************
04826  342A  20 87 34    XX2C2A JSR XX2C87
04827  342D  4C 1B 34           JMP XX2C1B
04828  3430              ;********************************
04829  3430  20 87 34    XX2C30 JSR XX2C87
04830  3433  60                 RTS 
04831  3434              ;********************************
04832  3434  48          XX2C34 PHA 
04833  3435  AD 85 11           LDA XX0985
04834  3438  8D 78 11           STA XX0978
04835  343B  AD 86 11           LDA XX0986
04836  343E  8D 79 11           STA XX0979
04837  3441  A9 80              LDA #$80
04838  3443  8D 7F 10           STA XX087F
04839  3446  68                 PLA 
04840  3447  AE 6A 10    XX2C47 LDX XX086A
04841  344A  A0 00              LDY #$00
04842  344C  4C C8 1D           JMP XX15C8






ASSEMBLERP64......PAGE 0090

LINE# LOC   CODE        LINE


04843  344F              ;********************************
04844  344F  AE 6E 10    XX2C4F LDX XX086E
04845  3452  EC 77 10           CPX XX0877
04846  3455  F0 02              BEQ XX2C59
04847  3457  B0 10              BCS XX2C69
04848  3459  BD 80 10    XX2C59 LDA XX0880,X
04849  345C  C9 20              CMP #$20        ;' '
04850  345E  F0 09              BEQ XX2C69
04851  3460  C9 3B              CMP #$3B        ;';'
04852  3462  F0 05              BEQ XX2C69
04853  3464  EE 6E 10           INC XX086E
04854  3467  38                 SEC 
04855  3468  60                 RTS 
04856  3469              ;********************************
04857  3469  18          XX2C69 CLC 
04858  346A  60                 RTS 
04859  346B              ;********************************
04860  346B  48          XX2C6B PHA 
04861  346C  8A                 TXA 
04862  346D  48                 PHA 
04863  346E  98                 TYA 
04864  346F  48                 PHA 
04865  3470  AD 66 10           LDA XX0866
04866  3473  F0 0C              BEQ XX2C81
04867  3475  A9 00              LDA #$00
04868  3477  AA                 TAX 
04869  3478  A8                 TAY 
04870  3479  20 68 23           JSR XX1B68
04871  347C  A9 00              LDA #$00
04872  347E  8D 62 10           STA XX0862
04873  3481  68          XX2C81 PLA 
04874  3482  A8                 TAY 
04875  3483  68                 PLA 
04876  3484  AA                 TAX 
04877  3485  68                 PLA 
04878  3486  60                 RTS 
04879  3487              ;********************************
04880  3487  AD 78 11    XX2C87 LDA XX0978
04881  348A  CD 80 11           CMP XX0980
04882  348D  D0 08              BNE XX2C97
04883  348F  AD 79 11           LDA XX0979
04884  3492  CD 81 11           CMP XX0981
04885  3495  F0 33              BEQ XX2CCA
04886  3497  A9 00       XX2C97 LDA #$00
04887  3499  20 F1 31           JSR XX29F1
04888  349C  AD 82 11           LDA XX0982
04889  349F  C9 09              CMP #$09
04890  34A1  90 05              BCC XX2CA8
04891  34A3  A9 29              LDA #$29        ;')'
04892  34A5  4C 34 34           JMP XX2C34
04893  34A8              ;********************************
04894  34A8  AD 82 11    XX2CA8 LDA XX0982
04895  34AB  18                 CLC 
04896  34AC  69 01              ADC #$01
04897  34AE  20 CE 34           JSR XX2CCE






ASSEMBLERP64......PAGE 0091

LINE# LOC   CODE        LINE


04898  34B1  A0 00              LDY #$00
04899  34B3  AD 80 11           LDA XX0980
04900  34B6  91 10              STA ($10),Y
04901  34B8  C8                 INY 
04902  34B9  AD 81 11           LDA XX0981
04903  34BC  91 10              STA ($10),Y
04904  34BE  AD 78 11           LDA XX0978
04905  34C1  8D 80 11           STA XX0980
04906  34C4  AD 79 11           LDA XX0979
04907  34C7  8D 79 11           STA XX0979
04908  34CA  EE 82 11    XX2CCA INC XX0982
04909  34CD  60                 RTS 
04910  34CE              ;********************************
04911  34CE  38          XX2CCE SEC 
04912  34CF  E9 01              SBC #$01
04913  34D1  10 05              BPL XX2CD8
04914  34D3  A9 13       XX2CD3 LDA #$13
04915  34D5  4C 34 34           JMP XX2C34
04916  34D8              ;********************************
04917  34D8  C9 09       XX2CD8 CMP #$09
04918  34DA  B0 F7              BCS XX2CD3
04919  34DC  0A                 ASL A
04920  34DD  18                 CLC 
04921  34DE  69 08              ADC #$08
04922  34E0  18                 CLC 
04923  34E1  6D 83 11           ADC XX0983
04924  34E4  85 10              STA $10
04925  34E6  AD 84 11           LDA XX0984
04926  34E9  69 00              ADC #$00
04927  34EB  85 11              STA $11
04928  34ED  60                 RTS 
04929  34EE              ;********************************
04930  34EE              ;********************************
04931  34EE              ;.END
04932  34EE              ;*=$2CEE
04933  34EE              ;********************************
04934  34EE  EE 8F 11    XX2CEE INC XX098F
04935  34F1  AD 8F 11           LDA XX098F
04936  34F4  C9 09              CMP #$09
04937  34F6  90 05              BCC XX2CFD
04938  34F8  A9 28              LDA #$28        ;'('
04939  34FA  4C EE 31           JMP XX29EE
04940  34FD              ;********************************
04941  34FD  AD 78 11    XX2CFD LDA XX0978
04942  3500  8D 7A 11           STA XX097A
04943  3503  AD 79 11           LDA XX0979
04944  3506  8D 7B 11           STA XX097B
04945  3509  AD 85 11           LDA XX0985
04946  350C  20 F1 31           JSR XX29F1
04947  350F  AD 86 11           LDA XX0986
04948  3512  20 F1 31           JSR XX29F1
04949  3515  AD 83 11           LDA XX0983
04950  3518  20 F1 31           JSR XX29F1
04951  351B  AD 84 11           LDA XX0984
04952  351E  20 F1 31           JSR XX29F1






ASSEMBLERP64......PAGE 0092

LINE# LOC   CODE        LINE


04953  3521  AD 87 11           LDA XX0987
04954  3524  20 F1 31           JSR XX29F1
04955  3527  AD 88 11           LDA XX0988
04956  352A  20 F1 31           JSR XX29F1
04957  352D  AD 7F 10           LDA XX087F
04958  3530  20 F1 31           JSR XX29F1
04959  3533  AD 7A 11           LDA XX097A
04960  3536  8D 85 11           STA XX0985
04961  3539  AD 7B 11           LDA XX097B
04962  353C  8D 86 11           STA XX0986
04963  353F  60                 RTS 
04964  3540              ;********************************
04965  3540  CE 8F 11    XX2D40 DEC XX098F
04966  3543  10 05              BPL XX2D4A
04967  3545  A9 24              LDA #$24        ;'$'
04968  3547  4C EE 31           JMP XX29EE
04969  354A              ;********************************
04970  354A  AD 85 11    XX2D4A LDA XX0985
04971  354D  85 10              STA $10
04972  354F  8D 78 11           STA XX0978
04973  3552  AD 86 11           LDA XX0986
04974  3555  85 11              STA $11
04975  3557  8D 79 11           STA XX0979
04976  355A  A0 00              LDY #$00
04977  355C  B1 10              LDA ($10),Y
04978  355E  8D 85 11           STA XX0985
04979  3561  C8                 INY 
04980  3562  B1 10              LDA ($10),Y
04981  3564  8D 86 11           STA XX0986
04982  3567  C8                 INY 
04983  3568  B1 10              LDA ($10),Y
04984  356A  8D 83 11           STA XX0983
04985  356D  C8                 INY 
04986  356E  B1 10              LDA ($10),Y
04987  3570  8D 84 11           STA XX0984
04988  3573  C8                 INY 
04989  3574  B1 10              LDA ($10),Y
04990  3576  8D 87 11           STA XX0987
04991  3579  C8                 INY 
04992  357A  B1 10              LDA ($10),Y
04993  357C  8D 88 11           STA XX0988
04994  357F  C8                 INY 
04995  3580  B1 10              LDA ($10),Y
04996  3582  8D 7F 10           STA XX087F
04997  3585  38                 SEC 
04998  3586  AD 85 11           LDA XX0985
04999  3589  E9 00              SBC #$00
05000  358B  AD 86 11           LDA XX0986
05001  358E              ; SOME KIND OF OFFSET       
05002  358E  E9 88              SBC #$88
05003  3590  B0 05              BCS XX2D97
05004  3592  A9 24              LDA #$24        ;'$'
05005  3594  4C EE 31    XX2D94 JMP XX29EE
05006  3597              ;********************************
05007  3597  38          XX2D97 SEC 






ASSEMBLERP64......PAGE 0093

LINE# LOC   CODE        LINE


05008  3598  A9 FF              LDA #$FF
05009  359A  ED 85 11           SBC XX0985
05010  359D              ; SOME KIND OF OFFSET       
05011  359D  A9 9B              LDA #$9B
05012  359F  ED 86 11           SBC XX0986
05013  35A2  90 04              BCC XX2DA8
05014  35A4  A9 23              LDA #$23        ;'#'
05015  35A6  D0 EC              BNE XX2D94
05016  35A8  60          XX2DA8 RTS 
05017  35A9              ;********************************
05018  35A9  AD 81 11    XX2DA9 LDA XX0981
05019  35AC  8D 84 11           STA XX0984
05020  35AF  AA                 TAX 
05021  35B0  AD 80 11           LDA XX0980
05022  35B3  8D 83 11           STA XX0983
05023  35B6  18                 CLC 
05024  35B7  69 1A              ADC #$1A
05025  35B9  8D 87 11           STA XX0987
05026  35BC  8A                 TXA 
05027  35BD  69 00              ADC #$00
05028  35BF  8D 88 11           STA XX0988
05029  35C2  AD 7F 10           LDA XX087F
05030  35C5  09 20              ORA #$20        ;' '
05031  35C7  8D 7F 10           STA XX087F
05032  35CA  60                 RTS 
05033  35CB              ;********************************
05034  35CB  AD 09 11    XX2DCB LDA XX0909
05035  35CE  C9 20              CMP #$20        ;' '
05036  35D0  D0 1E              BNE XX2DF0
05037  35D2  AD 08 11           LDA XX0908
05038  35D5  C9 41              CMP #$41        ;'A'
05039  35D7  F0 10              BEQ XX2DE9
05040  35D9  C9 58              CMP #$58        ;'X'
05041  35DB  F0 0C              BEQ XX2DE9
05042  35DD  C9 59              CMP #$59        ;'Y'
05043  35DF  F0 08              BEQ XX2DE9
05044  35E1  C9 53              CMP #$53        ;'S'
05045  35E3  F0 04              BEQ XX2DE9
05046  35E5  C9 50              CMP #$50        ;'P'
05047  35E7  D0 07              BNE XX2DF0
05048  35E9  A9 20       XX2DE9 LDA #$20        ;' '
05049  35EB  A0 03              LDY #$03
05050  35ED  4C C8 1D           JMP XX15C8
05051  35F0              ;********************************
05052  35F0  60          XX2DF0 RTS 
05053  35F1              ;********************************
05054  35F1              ; SYMBOL TABLE
05055  35F1              ;
05056  35F1              ; 6 CHARACTER SYMBOL PADDED WITH SPACED
05057  35F1              ; ADDRESS IN HI LO FORMAT
05058  35F1              ;
05059  35F1              ; XXXXXX HI LO
05060  35F1              ;
05061  35F1              ; EXAMPLE :
05062  35F1              ;






ASSEMBLERP64......PAGE 0094

LINE# LOC   CODE        LINE


05063  35F1              ; 'BASIC',$20,$A0,$00
05064  35F1              ;
05065  35F1              ;********************************
05066  35F1              XX2DF1=*
05067  35F1              ;********************************
05068  35F1              .END


ERRORS = 00000


SYMBOL TABLE

SYMBOL VALUE
 AA2045   2845    AA21AE   29AE    AA2294   2A94    AA22B5   2AB5
 AA22CB   2ACB    AA22D4   2AD4    AA22DA   2ADA    AA22DB   2ADB
 AA22E2   2AE2    AA22F3   2AF3    AA2310   2B10    AA2323   2B23
 AA2334   2B34    AA2340   2B40    AA23A5   2BA5    AA23BD   2BBD
 AA23DD   2BDD    AA23EB   2BEB    AA23F9   2BF9    AA240E   2C0E
 AA2423   2C23    AA2438   2C38    AA244D   2C4D    AA2462   2C62
 AA2477   2C77    AA248C   2C8C    AA24A1   2CA1    AA24B6   2CB6
 AA24CB   2CCB    AA24E0   2CE0    AA24F5   2CF5    AA250A   2D0A
 AA251F   2D1F    AA2534   2D34    AA2549   2D49    AA255E   2D5E
 AA2573   2D73    AA2588   2D88    AA259D   2D9D    AA25B2   2DB2
 AA25C7   2DC7    AA25DC   2DDC    AA25F1   2DF1    AA2606   2E06
 BASIC    100D    BASICW   867E    BB0F49   1749    BB0F4A   174A
 BB0F4C   174C    BB0F4D   174D    BB10D4   18D4    BB10D5   18D5
 BB10D7   18D7    BB10D8   18D8    BB10DA   18DA    BB10DB   18DB
 BB10DD   18DD    BB10DE   18DE    BB10E0   18E0    BB10E1   18E1
 BB10E3   18E3    BB10E4   18E4    BB10E6   18E6    BB10E7   18E7
 BB10E9   18E9    BB10EA   18EA    BB10EC   18EC    BB10ED   18ED
 BB10EF   18EF    BB10F0   18F0    BB10F2   18F2    BB10F3   18F3
 BB1136   1936    BB1183   1983    BB1184   1984    BB11F3   19F3
 BB11F4   19F4    BB1220   1A20    BB1221   1A21    BB2674   2E74
 BB2675   2E75    BB2785   2F85    BB2786   2F86    BSTUB    0001
 CHKIN    FFC6    CHKOUT   FFC9    CHRIN    FFCF    CHROUE   DC49
 CHROUT   FFD2    CLOSE    FFC3    CLRCHN   FFCC    GETIN    FFE4
 OPEN     FFC0    SCROLY   FF06    SETLFS   FFBA    SETMSG   FF90
 SETNAM   FFBD    STOP     FFE1    WW0F47   1747    WW1111   1911
 WW1120   1920    WW121E   1A1E    WW2A1C   321C    WW2B3A   333A
 XX081A   101A    XX082D   102D    XX082E   102E    XX082F   102F
 XX0830   1030    XX0831   1031    XX0832   1032    XX0833   1033
 XX0838   1038    XX0839   1039    XX083A   103A    XX0840   1040
 XX0844   1044    XX084A   104A    XX084B   104B    XX084C   104C
 XX084D   104D    XX084E   104E    XX084F   104F    XX0850   1050
 XX0851   1051    XX0852   1052    XX0853   1053    XX0854   1054
 XX0855   1055    XX0856   1056    XX0857   1057    XX0858   1058
 XX0859   1059    XX085A   105A    XX085B   105B    XX085C   105C
 XX085D   105D    XX085E   105E    XX085F   105F    XX0860   1060
 XX0861   1061    XX0862   1062    XX0863   1063    XX0864   1064
 XX0865   1065    XX0866   1066    XX0867   1067    XX0868   1068
 XX0869   1069    XX086A   106A    XX086B   106B    XX086C   106C
 XX086D   106D    XX086E   106E    XX086F   106F    XX0870   1070
 XX0871   1071    XX0872   1072    XX0873   1073    XX0874   1074








SYMBOL TABLE

SYMBOL VALUE
 XX0875   1075    XX0876   1076    XX0877   1077    XX0878   1078
 XX0879   1079    XX087A   107A    XX087B   107B    XX087C   107C
 XX087D   107D    XX087E   107E    XX087F   107F    XX0880   1080
 XX0881   1081    XX08CE   10CE    XX08CF   10CF    XX08D0   10D0
 XX08E3   10E3    XX0902   1102    XX0903   1103    XX0904   1104
 XX0905   1105    XX0906   1106    XX0907   1107    XX0908   1108
 XX0909   1109    XX0917   1117    XX0918   1118    XX0919   1119
 XX091A   111A    XX0929   1129    XX093E   113E    XX093F   113F
 XX0940   1140    XX0941   1141    XX0942   1142    XX0943   1143
 XX0944   1144    XX0945   1145    XX0946   1146    XX0947   1147
 XX0948   1148    XX0949   1149    XX0960   1160    XX0961   1161
 XX0973   1173    XX0974   1174    XX0975   1175    XX0976   1176
 XX0977   1177    XX0978   1178    XX0979   1179    XX097A   117A
 XX097B   117B    XX097C   117C    XX097D   117D    XX097E   117E
 XX097F   117F    XX0980   1180    XX0981   1181    XX0982   1182
 XX0983   1183    XX0984   1184    XX0985   1185    XX0986   1186
 XX0987   1187    XX0988   1188    XX0989   1189    XX098D   118D
 XX098E   118E    XX098F   118F    XX0990   1190    XX0A0C   120C
 XX0A27   1227    XX0A40   1240    XX0A47   1247    XX0A5B   125B
 XX0A76   1276    XX0A9E   129E    XX0AAF   12AF    XX0ABA   12BA
 XX0ACC   12CC    XX0AD8   12D8    XX0ADF   12DF    XX0AF6   12F6
 XX0B22   1322    XX0B41   1341    XX0B5F   135F    XX0B6C   136C
 XX0B6D   136D    XX0B76   1376    XX0B81   1381    XX0BB4   13B4
 XX0BB6   13B6    XX0BC6   13C6    XX0BDA   13DA    XX0BF9   13F9
 XX0C23   1423    XX0C24   1424    XX0C25   1425    XX0C2C   142C
 XX0C5C   145C    XX0C68   1468    XX0C7E   147E    XX0C7F   147F
 XX0C86   1486    XX0C93   1493    XX0C97   1497    XX0CA5   14A5
 XX0CAF   14AF    XX0CE3   14E3    XX0CE4   14E4    XX0CE5   14E5
 XX0CE8   14E8    XX0CEB   14EB    XX0CF5   14F5    XX0D02   1502
 XX0D09   1509    XX0D0F   150F    XX0D21   1521    XX0D25   1525
 XX0D28   1528    XX0D36   1536    XX0D43   1543    XX0D4A   154A
 XX0D4B   154B    XX0D4C   154C    XX0D5A   155A    XX0D69   1569
 XX0D78   1578    XX0D7B   157B    XX0D7C   157C    XX0D7D   157D
 XX0D87   1587    XX0D8F   158F    XX0DBB   15BB    XX0DCE   15CE
 XX0DE0   15E0    XX0DE5   15E5    XX0DEF   15EF    XX0DF4   15F4
 XX0DFD   15FD    XX0E0D   160D    XX0E18   1618    XX0E1B   161B
 XX0E2B   162B    XX0E2E   162E    XX0E35   1635    XX0E45   1645
 XX0E54   1654    XX0E65   1665    XX0E6C   166C    XX0E8B   168B
 XX0E9F   169F    XX0EA5   16A5    XX0EC1   16C1    XX0ECB   16CB
 XX0EDA   16DA    XX0EDD   16DD    XX0EF6   16F6    XX0EFD   16FD
 XX0F08   1708    XX0F15   1715    XX0F17   1717    XX0F19   1719
 XX0F36   1736    XX0F41   1741    XX0F5D   175D    XX0F6D   176D
 XX0F70   1770    XX0F80   1780    XX0F85   1785    XX0F92   1792
 XX0F95   1795    XX0FB0   17B0    XX0FC8   17C8    XX0FE7   17E7
 XX0FF7   17F7    XX1003   1803    XX1008   1808    XX1009   1809
 XX100A   180A    XX100B   180B    XX101C   181C    XX1028   1828
 XX102B   182B    XX1032   1832    XX1042   1842    XX1053   1853
 XX1060   1860    XX1074   1874    XX107B   187B    XX1086   1886
 XX108A   188A    XX1096   1896    XX10A5   18A5    XX10AD   18AD
 XX10B5   18B5    XX10C5   18C5    XX1100   1900    XX110A   190A
 XX1119   1919    XX112C   192C    XX112E   192E    XX1135   1935
 XX1151   1951    XX115C   195C    XX1169   1969    XX1190   1990
 XX11A9   19A9    XX11B0   19B0    XX11C7   19C7    XX11D2   19D2
 XX11DC   19DC    XX1202   1A02    XX123E   1A3E    XX124D   1A4D
 XX1259   1A59    XX125F   1A5F    XX126D   1A6D    XX1274   1A74








SYMBOL TABLE

SYMBOL VALUE
 XX1277   1A77    XX127F   1A7F    XX1282   1A82    XX1285   1A85
 XX128F   1A8F    XX1297   1A97    XX129A   1A9A    XX12AC   1AAC
 XX12BC   1ABC    XX12CA   1ACA    XX12E0   1AE0    XX12EA   1AEA
 XX12FA   1AFA    XX130C   1B0C    XX1316   1B16    XX131F   1B1F
 XX1325   1B25    XX1336   1B36    XX1352   1B52    XX135C   1B5C
 XX1369   1B69    XX1374   1B74    XX1376   1B76    XX1381   1B81
 XX1396   1B96    XX139E   1B9E    XX13C2   1BC2    XX13DB   1BDB
 XX13E8   1BE8    XX13F3   1BF3    XX13FB   1BFB    XX1402   1C02
 XX140B   1C0B    XX1413   1C13    XX141B   1C1B    XX1422   1C22
 XX142A   1C2A    XX142C   1C2C    XX1434   1C34    XX143C   1C3C
 XX146D   1C6D    XX1470   1C70    XX1475   1C75    XX1483   1C83
 XX148A   1C8A    XX1497   1C97    XX14A3   1CA3    XX14AD   1CAD
 XX14C5   1CC5    XX14D1   1CD1    XX14DA   1CDA    XX14E0   1CE0
 XX14EF   1CEF    XX1503   1D03    XX1514   1D14    XX1523   1D23
 XX1532   1D32    XX1557   1D57    XX1575   1D75    XX157F   1D7F
 XX158B   1D8B    XX1594   1D94    XX159C   1D9C    XX15A1   1DA1
 XX15A7   1DA7    XX15AD   1DAD    XX15B0   1DB0    XX15B8   1DB8
 XX15C4   1DC4    XX15C8   1DC8    XX15CB   1DCB    XX15D1   1DD1
 XX15DB   1DDB    XX15E2   1DE2    XX15EE   1DEE    XX15F5   1DF5
 XX15FD   1DFD    XX1604   1E04    XX1613   1E13    XX1617   1E17
 XX161B   1E1B    XX161D   1E1D    XX1621   1E21    XX1623   1E23
 XX162E   1E2E    XX1635   1E35    XX1638   1E38    XX163F   1E3F
 XX1646   1E46    XX1651   1E51    XX165F   1E5F    XX1675   1E75
 XX1682   1E82    XX168F   1E8F    XX1691   1E91    XX1698   1E98
 XX169F   1E9F    XX16AA   1EAA    XX16AC   1EAC    XX16B5   1EB5
 XX16BC   1EBC    XX16D3   1ED3    XX16D6   1ED6    XX16E4   1EE4
 XX16EE   1EEE    XX1705   1F05    XX170C   1F0C    XX1714   1F14
 XX171E   1F1E    XX1727   1F27    XX1730   1F30    XX1738   1F38
 XX173F   1F3F    XX1747   1F47    XX1751   1F51    XX175D   1F5D
 XX1760   1F60    XX177C   1F7C    XX178E   1F8E    XX1796   1F96
 XX17A0   1FA0    XX17A5   1FA5    XX17AD   1FAD    XX17B7   1FB7
 XX17CC   1FCC    XX17D8   1FD8    XX17E8   1FE8    XX1826   2026
 XX1831   2031    XX1834   2034    XX183F   203F    XX187B   207B
 XX1886   2086    XX189B   209B    XX18A2   20A2    XX18AE   20AE
 XX18BC   20BC    XX18DD   20DD    XX18E5   20E5    XX18F4   20F4
 XX18F8   20F8    XX1918   2118    XX191B   211B    XX191E   211E
 XX1924   2124    XX1938   2138    XX1939   2139    XX1941   2141
 XX194E   214E    XX1955   2155    XX195A   215A    XX195C   215C
 XX196C   216C    XX1974   2174    XX197C   217C    XX198E   218E
 XX199E   219E    XX19B5   21B5    XX19D2   21D2    XX19EB   21EB
 XX19F6   21F6    XX19F8   21F8    XX1A20   2220    XX1A2E   222E
 XX1A47   2247    XX1A65   2265    XX1A6B   226B    XX1A76   2276
 XX1A77   2277    XX1AB4   22B4    XX1ACA   22CA    XX1ACC   22CC
 XX1AE6   22E6    XX1AF2   22F2    XX1AFC   22FC    XX1B04   2304
 XX1B09   2309    XX1B0B   230B    XX1B28   2328    XX1B29   2329
 XX1B33   2333    XX1B3D   233D    XX1B3F   233F    XX1B56   2356
 XX1B61   2361    XX1B68   2368    XX1B8D   238D    XX1B9A   239A
 XX1BA7   23A7    XX1BB1   23B1    XX1BC2   23C2    XX1BCA   23CA
 XX1BD4   23D4    XX1BE1   23E1    XX1BED   23ED    XX1BF1   23F1
 XX1BF7   23F7    XX1C15   2415    XX1C18   2418    XX1C20   2420
 XX1C35   2435    XX1C38   2438    XX1C3D   243D    XX1C47   2447
 XX1C4C   244C    XX1C74   2474    XX1C82   2482    XX1C8D   248D
 XX1CA8   24A8    XX1CA9   24A9    XX1CB1   24B1    XX1CC0   24C0
 XX1CC3   24C3    XX1CCD   24CD    XX1CD6   24D6    XX1CDC   24DC
 XX1CE8   24E8    XX1CF1   24F1    XX1D08   2508    XX1D0B   250B








SYMBOL TABLE

SYMBOL VALUE
 XX1D21   2521    XX1D28   2528    XX1D34   2534    XX1D36   2536
 XX1D5A   255A    XX1D65   2565    XX1D6D   256D    XX1D6E   256E
 XX1D82   2582    XX1DB6   25B6    XX1DC4   25C4    XX1DE2   25E2
 XX1DE3   25E3    XX1DF5   25F5    XX1E02   2602    XX1E15   2615
 XX1E1B   261B    XX1E3E   263E    XX1E41   2641    XX1E5F   265F
 XX1E62   2662    XX1E75   2675    XX1E78   2678    XX1E80   2680
 XX1E83   2683    XX1EA5   26A5    XX1EB4   26B4    XX1EC9   26C9
 XX1ED3   26D3    XX1EE2   26E2    XX1EF6   26F6    XX1F00   2700
 XX1F01   2701    XX1F08   2708    XX1F0B   270B    XX1F21   2721
 XX1F2B   272B    XX1F2C   272C    XX1F35   2735    XX1F38   2738
 XX1F3B   273B    XX1F3E   273E    XX1F43   2743    XX1F5A   275A
 XX1F71   2771    XX1F77   2777    XX1F88   2788    XX1F92   2792
 XX1FA1   27A1    XX1FAC   27AC    XX1FB4   27B4    XX1FB8   27B8
 XX1FC2   27C2    XX1FC8   27C8    XX1FC9   27C9    XX1FF9   27F9
 XX2004   2804    XX2009   2809    XX200E   280E    XX2011   2811
 XX2012   2812    XX2066   2866    XX213B   293B    XX2149   2949
 XX214A   294A    XX221C   2A1C    XX2254   2A54    XX228C   2A8C
 XX228F   2A8F    XX261B   2E1B    XX261C   2E1C    XX2655   2E55
 XX265A   2E5A    XX265F   2E5F    XX2663   2E63    XX266D   2E6D
 XX2685   2E85    XX268B   2E8B    XX26A1   2EA1    XX26A7   2EA7
 XX26AC   2EAC    XX26BB   2EBB    XX26C6   2EC6    XX26C8   2EC8
 XX2709   2F09    XX2711   2F11    XX2723   2F23    XX2734   2F34
 XX2746   2F46    XX274B   2F4B    XX274D   2F4D    XX275F   2F5F
 XX276D   2F6D    XX277E   2F7E    XX2780   2F80    XX279C   2F9C
 XX27A6   2FA6    XX27A9   2FA9    XX27AD   2FAD    XX27CC   2FCC
 XX27D7   2FD7    XX27DD   2FDD    XX27EC   2FEC    XX27FB   2FFB
 XX27FE   2FFE    XX281D   301D    XX2825   3025    XX2827   3027
 XX2831   3031    XX2842   3042    XX285E   305E    XX2860   3060
 XX2871   3071    XX287A   307A    XX287C   307C    XX2885   3085
 XX2887   3087    XX2890   3090    XX2898   3098    XX28A6   30A6
 XX28A7   30A7    XX28A8   30A8    XX28BF   30BF    XX28C7   30C7
 XX28CA   30CA    XX28E0   30E0    XX28E8   30E8    XX28F2   30F2
 XX28FA   30FA    XX2904   3104    XX2927   3127    XX2928   3128
 XX2930   3130    XX2941   3141    XX2969   3169    XX297A   317A
 XX298D   318D    XX2991   3191    XX2999   3199    XX29AB   31AB
 XX29B2   31B2    XX29B5   31B5    XX29CA   31CA    XX29D2   31D2
 XX29DE   31DE    XX29EC   31EC    XX29EE   31EE    XX29F1   31F1
 XX2A17   3217    XX2A26   3226    XX2A34   3234    XX2A39   3239
 XX2A52   3252    XX2A64   3264    XX2A7D   327D    XX2A89   3289
 XX2A93   3293    XX2A98   3298    XX2AA3   32A3    XX2AA8   32A8
 XX2AB1   32B1    XX2AB7   32B7    XX2AC8   32C8    XX2AFD   32FD
 XX2B34   3334    XX2B3F   333F    XX2B50   3350    XX2B55   3355
 XX2B5D   335D    XX2B6C   336C    XX2B6E   336E    XX2B7A   337A
 XX2B89   3389    XX2BAC   33AC    XX2BB1   33B1    XX2BB3   33B3
 XX2BBF   33BF    XX2BC9   33C9    XX2BD8   33D8    XX2BE5   33E5
 XX2BEA   33EA    XX2BF4   33F4    XX2BF9   33F9    XX2C02   3402
 XX2C1B   341B    XX2C2A   342A    XX2C30   3430    XX2C34   3434
 XX2C47   3447    XX2C4F   344F    XX2C59   3459    XX2C69   3469
 XX2C6B   346B    XX2C81   3481    XX2C87   3487    XX2C97   3497
 XX2CA8   34A8    XX2CCA   34CA    XX2CCE   34CE    XX2CD3   34D3
 XX2CD8   34D8    XX2CEE   34EE    XX2CFD   34FD    XX2D40   3540
 XX2D4A   354A    XX2D94   3594    XX2D97   3597    XX2DA8   35A8
 XX2DA9   35A9    XX2DCB   35CB    XX2DE9   35E9    XX2DF0   35F0
 XX2DF1   35F1    ZZ080F   100F    ZZ10D2   18D2    ZZ206C   286C
 ZZ2093   2893   

END OF ASSEMBLY

CROSS REFERENCE......PAGE    1


  AA2045 $2845  1198  1200  3451
* AA21AE $29AE  3660
  AA2294 $2A94  3027  3906
  AA22B5 $2AB5  2755  2756  3913
  AA22CB $2ACB  3055  3916
  AA22D4 $2AD4   713   714  3919
  AA22DA $2ADA   707   708  3921
  AA22DB $2ADB   829   830  3923
  AA22E2 $2AE2  3074  3927
  AA22F3 $2AF3  2951  3931
  AA2310 $2B10   663   664  3939
  AA2323 $2B23  1602  1603  3943
  AA2334 $2B34  1627  1628  3947
  AA2340 $2B40   576   577  3951
  AA23A5 $2BA5   627   628  3960
  AA23BD $2BBD   650   651  3964
  AA23DD $2BDD   774   775  3970
  AA23EB $2BEB   820   821  3971
  AA23F9 $2BF9  3977  4007  4008
  AA240E $2C0E  3978  4010  4011
  AA2423 $2C23  3979  4013  4014
  AA2438 $2C38  3980  4016  4017
  AA244D $2C4D  3981  4019  4020
  AA2462 $2C62  3982  4025  4026
  AA2477 $2C77  3983  4028  4029
  AA248C $2C8C  3984  4031  4032
  AA24A1 $2CA1  3985  4034  4035
  AA24B6 $2CB6  3986  4037  4038
  AA24CB $2CCB  3987  4040  4041
  AA24E0 $2CE0  3988  4043  4044
  AA24F5 $2CF5  3989  4046  4047
  AA250A $2D0A  3990  4055  4056
  AA251F $2D1F  3991  4058  4059
  AA2534 $2D34  3992  4061  4062
  AA2549 $2D49  3993  4064  4065
  AA255E $2D5E  3994  4067  4068
  AA2573 $2D73  3995  4070  4071
  AA2588 $2D88  3996  4073  4074
  AA259D $2D9D  3997  4076  4077
  AA25B2 $2DB2  3998  4079  4080
  AA25C7 $2DC7  3999  4082  4083
  AA25DC $2DDC  4000  4085  4086
  AA25F1 $2DF1  4001  4088  4089
  AA2606 $2E06  4002  4091  4092
  BASIC  $100D    28    33
  BASICW $867E    54  4376
* BB0F49 $1749  1249
  BB0F4A $174A  1250  3440  3441
* BB0F4C $174C  1254
  BB0F4D $174D  1255  3443  3444
* BB10D4 $18D4  1437
  BB10D5 $18D5  1438  3404  3405
* BB10D7 $18D7  1442
  BB10D8 $18D8  1443  3401  3402
* BB10DA $18DA  1447
  BB10DB $18DB  1448  3398  3399







CROSS REFERENCE......PAGE    2


* BB10DD $18DD  1452
  BB10DE $18DE  1453  3395  3396
* BB10E0 $18E0  1457
  BB10E1 $18E1  1458  3389  3390  3392  3393
* BB10E3 $18E3  1462
  BB10E4 $18E4  1463  3386  3387
* BB10E6 $18E6  1467
  BB10E7 $18E7  1468  3383  3384
* BB10E9 $18E9  1473
  BB10EA $18EA  1474  3380  3381
* BB10EC $18EC  1478
  BB10ED $18ED  1479  3377  3378
* BB10EF $18EF  1483
  BB10F0 $18F0  1484  3374  3375
* BB10F2 $18F2  1488
  BB10F3 $18F3  1489  3371  3372
* BB1136 $1936  1525
  BB1183 $1983  1563  3425  3426
* BB1184 $1984  1564
  BB11F3 $19F3  1620  3422  3423
* BB11F4 $19F4  1621
* BB1220 $1A20  1647
  BB1221 $1A21  1648  3416  3417
* BB2674 $2E74  4126
* BB2675 $2E75  4127
* BB2785 $2F85  4254
* BB2786 $2F86  4255
  BSTUB  $0001     9    26
  CHKIN  $FFC6    65   585  4137  4319
  CHKOUT $FFC9    66   783   895  2695  4265  4506
  CHRIN  $FFCF    68   590   599   633   656   673   686  4138  4320  4322

                4329  4343
  CHROUE $DC49    55  4272
  CHROUT $FFD2    69   575   794   906  2697  2699  2701  2703  4268  4508

  CLOSE  $FFC3    64   814  1534  1543  1547  1568  1572  4278  4280  4282

                4287  4289
  CLRCHN $FFCC    67   582   764   780   812   892  2692  4134  4145  4159

                4262  4276  4290  4299  4316  4503
  GETIN  $FFE4    71  4304
  OPEN   $FFC0    63   565   570   644   732   742   778   824   845  1578

                1637
  SCROLY $FF06    56   752   754   759   761
  SETLFS $FFBA    61   562   569   641   723   737   772   818   844  1577

                1636
  SETMSG $FF90    60    75
  SETNAM $FFBD    62   564   643   731   741   777   823   840  1617
  STOP   $FFE1    70  4293
  WW0F47 $1747  1247  3446  3447
  WW1111 $1911  1506  3437  3438
  WW1120 $1920  1513  3434  3435
  WW121E $1A1E  1644  3419  3420
  WW2A1C $321C  3410  3411  4582
  WW2B3A $333A  3413  3414  4704
  XX081A $101A    88  4380  4386
* XX082D $102D   110
* XX082E $102E   111







CROSS REFERENCE......PAGE    3


* XX082F $102F   112
* XX0830 $1030   113
* XX0831 $1031   114
* XX0832 $1032   115
* XX0833 $1033   119
  XX0838 $1038   124   516   659   765  2674
  XX0839 $1039   126   519   584   782   888   894   920  1552  2690  2694

                4132  4136  4157  4259  4264  4301  4318  4500  4505
  XX083A $103A   130   694   700   703   738   739
* XX0840 $1040   136
* XX0844 $1044   140
  XX084A $104A   146   697   705   740   916
  XX084B $104B   147   865   942  1559  1599  4150
  XX084C $104C   148   684   691   696  1598  1607
  XX084D $104D   149   522   789  2601  2752  2938  2940  3068
  XX084E $104E   150   523   788  2603  2750  2935  2937  2941  3069
  XX084F $104F   151   556  3000  3002  3025
  XX0850 $1050   152   558  3004  3005  3023
  XX0851 $1051   153  1721  1759  1760  1841  1853  1877  2025  2776
  XX0852 $1052   154  1717  1731  1755  1908  1985  2059  2774
  XX0853 $1053   155  1060  1066  1090  1175  1187  2310  2347  2351  2354

                2363  2401  2452  2462  2478  2511  2545  2551  2570  2572

                2582  2668  2745  4615
  XX0854 $1054   156  1063  1067  1092  1178  1189  2308  2352  2360  2398

                2453  2463  2475  2512  2547  2550  2566  2569  2579  2580

                2671  2748  4616
  XX0855 $1055   157  2234  2355
  XX0856 $1056   158  1012  1203  1420  2197  2294  2337  2590  2898  2916

                2917  2924
  XX0857 $1057   159  1131  1275  1656  1788  2495  2858
  XX0858 $1058   160  2322  2522  2530
  XX0859 $1059   161   862   919  2997  3009  3014
  XX085A $105A   162  1216  1260  1293  1306  1308  1310  1312  1317  1319

                1330  1363  1399  1401  1403  1405  1410  1508
  XX085B $105B   163   529  3057  3311
  XX085C $105C   164   530  3058  3313
  XX085D $105D   165  1714  1776  1791  1839  1840  1865  1874  1875  1880

                1895  1943  1964  1967  1974  1977  2004  2007  2018  2021

  XX085E $105E   166  1716  1831  1904  1989  2028
  XX085F $105F   167  2869  3276
  XX0860 $1060   168  1785  2080
  XX0861 $1061   169   937  1037  1078  1104  1181
  XX0862 $1062   170   928  3164  3235  4872
  XX0863 $1063   171   938  1054  1056  1081  1088  4582
  XX0864 $1064   172   939  1102  1142
  XX0865 $1065   173   940  1258  1284  1302  1313  1368
  XX0866 $1066   174   520  1074  1531  1541  1687  2672  2832  2870  4401

                4538  4609  4681  4865
  XX0867 $1067   175   860   954  2702  3119
  XX0868 $1068   176   861   952  2700  2809
  XX0869 $1069   177   930   987   991  1085  1150  1195  1273  1290  1366

                1418  1654  1763  1778  2063  2068  2074  2085  2109
  XX086A $106A   178   931  1046  1125  1268  1702  1734  2131  4587  4802

                4840
  XX086B $106B   179   934  1003  1004  1019  1044  1167  2116  2147  4598

                4795







CROSS REFERENCE......PAGE    4


  XX086C $106C   180   935  1160  1176  1186  1305  1316  1325  1669  1923

                1925  1934  1941  1949  1957  1960  2037  2050  2217  2362

                2364  2400  2402  2460  2466  2477  2479
  XX086D $106D   181   936  1162  1179  1188  1309  1670  1815  1918  1921

                1951  2031  2218  2358  2361  2396  2399  2457  2468  2473

                2476  2860
  XX086E $106E   182   941   974  1026  1047  1048  1095  1103  1116  1117

                1214  1342  1371  1373  1374  1381  1382  1503  1661  1735

                1736  2077  2102  2112  2117  2150  2158  2166  2177  4588

                4589  4595  4642  4707  4709  4711  4771  4844  4853
  XX086F $106F   183  2890  2899  2927  2950  2953  2956  2959  3030  3034

                3037  3049  3062  3110  3234  3266  3310
  XX0870 $1070   184  1715  1833  1901  1959  1963  1995  2003  2010  2017

                2034  2047  2053  2058  2086
  XX0871 $1071   185   932  1194  1281  1289  1301  1733  1740  1787  1828

                1885  1933  1939  1955  1971  1999  2014  2039  2073  2082

                2877  2883  3080  3081  3175
  XX0872 $1072   186   518  1555  1557  3054  3060  3073  3076  3262  3314

                4269
  XX0873 $1073   192   635   646   750  3066  4255  4256
  XX0874 $1074   196   867  1234  1492  2974  3064  3084  3089  3093  3239

                3263  4406
  XX0875 $1075   197   524   929  1145  1320  2045  2220  2221  2369  2373

                2379  2380  2385  2386  2390  2391  2407  2411  2417  2418

                2422  2423  2428  2432  2433  2553  2555  2563  2565  2574

                2576  2584  2586
  XX0876 $1076   198  2527  2577  3109  3121  3122  3129  3168  3252  3253

                3258
  XX0877 $1077   199   933   968  1094  1118  1205  1343  1375  1383  1589

                1750  1779  1804  1817  1845  1857  1889  2099  2103  2118

                2151  2159  2222  2235  2252  2279  2315  2326  2434  2994

                3173  3188  3193  3210  3213  3232  4710  4784  4845
  XX0878 $1078   200  2239  2245  2344
  XX0879 $1079   201  2240  2250  2349
  XX087A $107A   202  1265  1272  1285  1288  1294  1297  1329  1653
  XX087B $107B   203  1360  1917  1924  2286  2289  2295  2302  2333  2336

                2371  2374  2409  2412  2426  2429  2445  2451  2459  2461

                2465  2483  2546  2561  2571
  XX087C $107C   204  1914  1920  2298  2300  2446  2450  2456  2458  2467

                2481  2548  2560  2568
  XX087D $107D   205  3317  3326  3328  3333  3335
  XX087E $107E   206  3318  3329  3331  3336  3338
  XX087F $107F   207   521   745  1525  1526  1548  1550  1564  1565  1621

                1622  1640  1641  3086  3124  3219  4117  4122  4127  4128

                4197  4199  4210  4212  4838  4957  4996  5029  5031
  XX0880 $1080   208   963   975   992  1051  1113  1208  1340  1356  1378

                1386  1497  1515  1585  1743  1796  1809  1820  1836  1850

                1862  1892  2106  2121  2154  2162  2169  2180  2186  2209

                2439  2498  2513  3177  3181  3184  3195  3206  3215  4716

                4773  4783  4848
  XX0881 $1081   212  1752  2986
* XX08CE $10CE   292
  XX08CF $10CF   293   921
  XX08D0 $10D0   298   913  2991  3011  4338  4347  4351  4352  4353
* XX08E3 $10E3   317
  XX0902 $1102   348  2798  3104







CROSS REFERENCE......PAGE    5


  XX0903 $1103   349  2800  2847  2852  3300
  XX0904 $1104   350  2804  3100
  XX0905 $1105   351  2806  3102
  XX0906 $1106   352  2808  2816  2822  2834  2841  2872  2876  3079
  XX0907 $1107   353  2810  3106
  XX0908 $1108   354   725   728   729  1039  1170  1222  1588  1609  1612

                1615  1616  2210  2214  2645  2740  2768  4736  4780  4798

                5037
  XX0909 $1109   355   727  5034
* XX0917 $1117   369
  XX0918 $1118   370  3097  3155  4398
  XX0919 $1119   371  3098
  XX091A $111A   372  3099
* XX0929 $1129   387
* XX093E $113E   408
* XX093F $113F   409
  XX0940 $1140   410  4426  4427  4450  4454  4455  4480
  XX0941 $1141   411  4429  4447  4457  4483
  XX0942 $1142   412  4412  4430  4442  4448  4514
  XX0943 $1143   413  4415  4432  4444  4451  4516
  XX0944 $1144   414  4439  4460  4513
  XX0945 $1145   415  4440  4462  4515
  XX0946 $1146   416  4417  4421  4424  4446  4465  4472  4478  4510
  XX0947 $1147   417  4452
  XX0948 $1148   418  4449
  XX0949 $1149   419  4423
* XX0960 $1160   442
  XX0961 $1161   446   607   612   615   618   621   838   839
  XX0973 $1173   467   597   604   609   623   837
  XX0974 $1174   471   517   596   832  4283  4399
  XX0975 $1175   475  1650  1674
  XX0976 $1176   476   552  4528  4545  4549  4618  4650  4672  4684  4696

                4727
  XX0977 $1177   477   553  4530  4547  4551  4620  4652  4674  4686  4698

                4729
  XX0978 $1178   478   871  4235  4561  4570  4571  4815  4834  4880  4904

                4941  4972
  XX0979 $1179   479   872  4237  4563  4573  4817  4836  4883  4906  4907

                4943  4975
  XX097A $117A   480  4183  4187  4619  4671  4691  4942  4959
  XX097B $117B   481  4185  4189  4621  4673  4693  4944  4961
  XX097C $117C   482  4651  4683
  XX097D $117D   483  4653  4685
  XX097E $117E   484  4658  4660
  XX097F $117F   485  4527  4534  4566  4569
  XX0980 $1180   486  4753  4758  4816  4881  4899  4905  5021
  XX0981 $1181   487  4755  4760  4818  4884  4902  5018
  XX0982 $1182   488  4812  4888  4894  4908
  XX0983 $1183   489   525  4923  4949  4984  5022
  XX0984 $1184   490   526  4925  4951  4987  5019
  XX0985 $1185   491   873  4833  4945  4960  4970  4978  4998  5009
  XX0986 $1186   492   874  4835  4947  4962  4973  4981  5000  5012
  XX0987 $1187   493   527  4215  4219  4953  4990  5025
  XX0988 $1188   494   528  4217  4221  4955  4993  5028
  XX0989 $1189   498   877   881  4227  4228  4232  4240
  XX098D $118D   502  4176  4180  4192  4200  4204  4236







CROSS REFERENCE......PAGE    6


  XX098E $118E   503  4179  4195  4202  4206  4238
  XX098F $118F   504   863  4934  4935  4965
  XX0990 $1190    76   512
  XX0A0C $120C   574   589   606
  XX0A27 $1227   588   592
  XX0A40 $1240   599   610
  XX0A47 $1247   598   602
  XX0A5B $125B   601   603   611
  XX0A76 $1276   594   627   672
  XX0A9E $129E   637   650   693
  XX0AAF $12AF   658   663
  XX0ABA $12BA   671   675
  XX0ACC $12CC   677   680
  XX0AD8 $12D8   686   698
  XX0ADF $12DF   685   689
  XX0AF6 $12F6   688   690   699
  XX0B22 $1322   681   720
  XX0B41 $1341   710   734   854
  XX0B5F $135F   711   750  4309
  XX0B6C $136C   751   755
  XX0B6D $136D   759  4297  4374
  XX0B76 $1376   764  1544
  XX0B81 $1381   766   769
  XX0BB4 $13B4   792   809   811
  XX0BB6 $13B6   793   797
  XX0BC6 $13C6   799   801
  XX0BDA $13DA   804   812
  XX0BF9 $13F9   767   826
  XX0C23 $1423   833   851
* XX0C24 $1424   852
* XX0C25 $1425   853
  XX0C2C $142C   554   826   857
  XX0C5C $145C   877   879
  XX0C68 $1468   578   629   652   665   709   715   831   886  1604  1629

                2757  4354  4360
* XX0C7E $147E   897
  XX0C7F $147F   889   898
  XX0C86 $1486   902   908
  XX0C93 $1493   716   852   853   911
  XX0C97 $1497   913   915
  XX0CA5 $14A5   920   923
  XX0CAF $14AF   718   855   926  2097
* XX0CE3 $14E3   945
* XX0CE4 $14E4   946
* XX0CE5 $14E5   947
  XX0CE8 $14E8   943   949
  XX0CEB $14EB   946   947   951  4637
  XX0CF5 $14F5   953   955   965
  XX0D02 $1502   959   963
  XX0D09 $1509   957   967
  XX0D0F $150F   948   972  1099
  XX0D21 $1521   977   980
  XX0D25 $1525   973   982
  XX0D28 $1528   981   984
  XX0D36 $1536   985   991
  XX0D43 $1543   994   997







CROSS REFERENCE......PAGE    7


  XX0D4A $154A   998  1002
* XX0D4B $154B  1003
* XX0D4C $154C  1004
  XX0D5A $155A  1006  1007  1012
  XX0D69 $1569  1014  1019
  XX0D78 $1578  1021  1023  1026
* XX0D7B $157B  1028
* XX0D7C $157C  1029
* XX0D7D $157D  1030
  XX0D87 $1587  1031  1036
  XX0D8F $158F  1039  1043
  XX0DBB $15BB  1050  1053  1058
  XX0DCE $15CE  1062  1066
  XX0DE0 $15E0  1071  1074
  XX0DE5 $15E5  1069  1076
  XX0DEF $15EF  1059  1081
  XX0DF4 $15F4  1055  1083
  XX0DFD $15FD  1082  1088
  XX0E0D $160D  1065  1075  1094
  XX0E18 $1618  1096  1099
  XX0E1B $161B   999  1101
  XX0E2B $162B  1107  1115
  XX0E2E $162E  1106  1113
  XX0E35 $1635  1057  1116
  XX0E45 $1645  1119  1120  1123
  XX0E54 $1654  1124  1130
  XX0E65 $1665  1133  1138
  XX0E6C $166C  1132  1142
  XX0E8B $168B  1146  1156
  XX0E9F $169F  1143  1166
  XX0EA5 $16A5  1169  1172
  XX0EC1 $16C1  1177  1181
  XX0ECB $16CB  1174  1186
  XX0EDA $16DA  1180  1191
  XX0EDD $16DD   995  1193
  XX0EF6 $16F6  1205  1212
  XX0EFD $16FD  1206  1208
  XX0F08 $1708  1207  1210  1214
  XX0F15 $1715  1217  1220
  XX0F17 $1717  1221  1244  1432
  XX0F19 $1719  1222  1226
  XX0F36 $1736  1224  1237
  XX0F41 $1741  1241  1243
  XX0F5D $175D  1263  1265
  XX0F6D $176D  1267  1272
  XX0F70 $1770  1273  1354
  XX0F80 $1780  1277  1280
  XX0F85 $1785  1282  1322  1326
  XX0F92 $1792  1283  1288
  XX0F95 $1795  1286  1289
  XX0FB0 $17B0  1276  1300
  XX0FC8 $17C8  1304  1309
  XX0FE7 $17E7  1315  1320
  XX0FF7 $17F7  1324  1327
  XX1003 $1803  1296  1298  1332  1349  1364  1408
* XX1008 $1808  1336







CROSS REFERENCE......PAGE    8


* XX1009 $1809  1337
* XX100A $180A  1338
  XX100B $180B  1333  1340
  XX101C $181C  1344  1345  1348
  XX1028 $1828  1351  1354
  XX102B $182B  1278  1356
  XX1032 $1832  1359  1367  1370
  XX1042 $1842  1358  1366
  XX1053 $1853  1373  1402
  XX1060 $1860  1376  1378
  XX1074 $1874  1384  1386
  XX107B $187B  1380  1389
  XX1086 $1886  1392  1395
  XX108A $188A  1394  1398
  XX1096 $1896  1385  1388  1403
  XX10A5 $18A5  1377  1410
  XX10AD $18AD  1414  1504  3428  3429
  XX10B5 $18B5  1415  1418
  XX10C5 $18C5  1422  1427
  XX1100 $1900  1494  1497
  XX110A $190A  1499  1502
  XX1119 $1919  1507  1509
  XX112C $192C  1514  1518
  XX112E $192E  1517  1519
  XX1135 $1935   949  1524  1711  3431  3432  4639
  XX1151 $1951  1532  1541
  XX115C $195C  1528  1546
  XX1169 $1969  1551  1580  1642
  XX1190 $1990  1566  1571
  XX11A9 $19A9  1573  1582  1632
  XX11B0 $19B0  1585  1594
  XX11C7 $19C7  1587  1590  1596
  XX11D2 $19D2  1583  1595  1602
  XX11DC $19DC  1600  1607
  XX1202 $1A02  1569  1623  1632
  XX123E $1A3E  1657  1661
  XX124D $1A4D  1665  1668
  XX1259 $1A59  1671  1673
  XX125F $1A5F  1676  1678  1681
  XX126D $1A6D  1682  1684
  XX1274 $1A74  1675  1685
  XX1277 $1A77  1658  1687
  XX127F $1A7F  1688  1693
  XX1282 $1A82  1652  1663  1666  1697
  XX1285 $1A85  1659  1701
  XX128F $1A8F  1676  1679  1682  1706
  XX1297 $1A97  1708  1711
  XX129A $1A9A  1024  1713
  XX12AC $1AAC  1720  1761
  XX12BC $1ABC  1719  1728
  XX12CA $1ACA  1729  1734
  XX12E0 $1AE0  1738  1743
  XX12EA $1AEA  1745  1748
  XX12FA $1AFA  1751  1755
  XX130C $1B0C  1757  1763
  XX1316 $1B16  1749  1754  1768







CROSS REFERENCE......PAGE    9


  XX131F $1B1F  1769  1773
  XX1325 $1B25  1771  1776
  XX1336 $1B36  1774  1780  1781  1784
  XX1352 $1B52  1793  1796
  XX135C $1B5C  1798  1801
  XX1369 $1B69  1805  1806  1809
  XX1374 $1B74  1811  1814
  XX1376 $1B76  1813  1815
  XX1381 $1B81  1818  1820
  XX1396 $1B96  1790  1831
  XX139E $1B9E  1789  1819  1822  1824  1834
  XX13C2 $1BC2  1838  1846  1847  1850
  XX13DB $1BDB  1852  1858  1859  1862
  XX13E8 $1BE8  1864  1868
  XX13F3 $1BF3  1869  1874
  XX13FB $1BFB  1835  1877
  XX1402 $1C02  1843  1880
  XX140B $1C0B  1855  1884  1894
  XX1413 $1C13  1883  1888
  XX141B $1C1B  1890  1892
  XX1422 $1C22  1881  1891  1895
  XX142A $1C2A  1896  1899
  XX142C $1C2C  1897  1900
  XX1434 $1C34  1866  1876  1879  1904
  XX143C $1C3C  1905  1908
  XX146D $1C6D  1926  1930
  XX1470 $1C70  1929  1932
  XX1475 $1C75  1928  1931  1934
  XX1483 $1C83  1937  1940
  XX148A $1C8A  1910  1943
  XX1497 $1C97  1947  1949
  XX14A3 $1CA3  1950  1954
  XX14AD $1CAD  1935  1942  1945  1948  1953  1958
  XX14C5 $1CC5  1968  2008
  XX14D1 $1CD1  1906  1961  1974
  XX14DA $1CDA  1978  2022
  XX14E0 $1CE0  1969  1979  1981
  XX14EF $1CEF  1980  1989
  XX1503 $1D03  1997  2002
  XX1514 $1D14  1994  2010
  XX1523 $1D23  2012  2017
  XX1532 $1D32  1902  1988  2024
  XX1557 $1D57  2036  2039
  XX1575 $1D75  2049  2052
  XX157F $1D7F  2029  2058
  XX158B $1D8B  2061  2063
  XX1594 $1D94  2041  2068
  XX159C $1D9C  1107  1121  1346  1352  1741  1782  1807  1848  1860  2072

  XX15A1 $1DA1  1218  1245  1423  1746  1972  2000  2015  2074
  XX15A7 $1DA7  1799  1886  2043  2077
  XX15AD $1DAD  1794  2080
  XX15B0 $1DB0  2075  2078  2081
  XX15B8 $1DB8  2046  2051  2085
  XX15C4 $1DC4   982  1097  1191  1416  2091
  XX15C8 $1DC8   989  1010  1017  1034  1079  1086  1128  1136  1140  1184

                1270  1412  1511  1521  1704  1726  1766  1829  1872  2056








CROSS REFERENCE......PAGE   10


                2066  2070  2083  2089  2094  4842  5050
  XX15CB $1DCB   978  1154  1164  1337  1338  1495  1500  1560  1685  2095

                4702  4764
  XX15D1 $1DD1   972  1049  1105  1123  1266  1350  1414  1506  1513  1582

                1651  1662  1737  2099  4766  4813
  XX15DB $1DDB  2103  2113
  XX15E2 $1DE2  2104  2106
  XX15EE $1DEE  2108  2111
  XX15F5 $1DF5   984  2115
  XX15FD $1DFD  2118  2148
  XX1604 $1E04  2119  2121
  XX1613 $1E13  2123  2125  2128
  XX1617 $1E17  2130  2136
  XX161B $1E1B  2110  2132  2173  2175  2184  2190
  XX161D $1E1D  2120  2135
  XX1621 $1E21  2101  2105  2137  2153  2161  2171  2182  2185  2188  2191

  XX1623 $1E23  2127  2140
  XX162E $1E2E  2129  2141  2144  2146
  XX1635 $1E35  1332  1493  1834  2150
  XX1638 $1E38  2151  2167  2178
  XX163F $1E3F  2152  2154
  XX1646 $1E46  2157  2164
  XX1651 $1E51  2160  2162
  XX165F $1E5F  2156  2169
  XX1675 $1E75  1029  1030  2180  2200  2274  2284  2320  2331  2519  4596

                4776
  XX1682 $1E82  2186  2202  2255  2282  2318  2329  2514  4778
  XX168F $1E8F  1013  1204  1421  2192  2296
  XX1691 $1E91  2193  2212  2215
  XX1698 $1E98  2195  2197
  XX169F $1E9F  2198  2200
  XX16AA $1EAA  2196  2206
  XX16AC $1EAC  2201  2203  2209
  XX16B5 $1EB5  2199  2213
  XX16BC $1EBC  1130  1274  1655  1784  2216  2857
  XX16D3 $1ED3  2225  2228  2237  2242  2254
  XX16D6 $1ED6  2223  2224  2227
  XX16E4 $1EE4  2231  2234  2441
  XX16EE $1EEE  2236  2238
  XX1705 $1F05  2244  2248
  XX170C $1F0C  2246  2251
  XX1714 $1F14  2249  2253  2255
  XX171E $1F1E  2256  2260
  XX1727 $1F27  2261  2265
  XX1730 $1F30  2266  2270
  XX1738 $1F38  2271  2274
  XX173F $1F3F  2278  2283  2285
  XX1747 $1F47  2280  2282
  XX1751 $1F51  2281  2286
  XX175D $1F5D  2292  2297  2306  2317  2321
  XX1760 $1F60  2291  2294
  XX177C $1F7C  2275  2305
  XX178E $1F8E  2263  2268  2273  2314
  XX1796 $1F96  2316  2318
  XX17A0 $1FA0  2258  2319  2322
  XX17A5 $1FA5  2325  2330  2332







CROSS REFERENCE......PAGE   11


  XX17AD $1FAD  2327  2329
  XX17B7 $1FB7  2328  2333
  XX17CC $1FCC  2301  2312  2341  2344
  XX17D8 $1FD8  2345  2349
  XX17E8 $1FE8  2348  2350  2355
  XX1826 $2026  2375  2382
  XX1831 $2031  2377  2381  2387
  XX1834 $2034  2383  2389
  XX183F $203F  2357  2394
  XX187B $207B  2415  2421
  XX1886 $2086  2413  2426
  XX189B $209B  2387  2392  2419  2424  2430  2434  2469
  XX18A2 $20A2  2435  2437
  XX18AE $20AE  2395  2443
  XX18BC $20BC  2450  2464
  XX18DD $20DD  2454  2462
  XX18E5 $20E5  2465  2480
  XX18F4 $20F4  2449  2471
  XX18F8 $20F8  2473  2482  2484
  XX1918 $2118  2436  2438  2486
  XX191B $211B  2303  2490
  XX191E $211E  2225  2292  2342  2472  2494
  XX1924 $2124  2227  2241  2437  2498
  XX1938 $2138  2500  2502  2504  2506  2508
  XX1939 $2139  2340  2510
  XX1941 $2141  2513  2592
  XX194E $214E  2515  2519
  XX1955 $2155  2517  2522
  XX195A $215A  2520  2524  2544
  XX195C $215C  2523  2527
  XX196C $216C  2532  2535
  XX1974 $2174  2536  2539
  XX197C $217C  2540  2543
  XX198E $218E  2534  2538  2542  2550  2557
  XX199E $219E  2552  2556
  XX19B5 $21B5  2562  2566
  XX19D2 $21D2  2559  2573  2577
  XX19EB $21EB  2581  2583  2587
  XX19F6 $21F6  2591  2594
  XX19F8 $21F8  1058  1173  2299  2597  4607
  XX1A20 $2220  2618  2655  2658
  XX1A2E $222E  2624  2627
  XX1A47 $2247  2641  2646
  XX1A65 $2265  2652  2656
  XX1A6B $226B  2649  2659
  XX1A76 $2276  2659  2665
  XX1A77 $2277  2643  2667
  XX1AB4 $22B4  2691  2696
  XX1ACA $22CA  2673  2675  2704
  XX1ACC $22CC  1093  1190  2707  4617
  XX1AE6 $22E6  2721  2737
  XX1AF2 $22F2  2723  2727
  XX1AFC $22FC  2730  2732
  XX1B04 $2304  2734  2736
  XX1B09 $2309  2726  2739
  XX1B0B $230B  2740  2743







CROSS REFERENCE......PAGE   12


  XX1B28 $2328  2751  2753
  XX1B29 $2329  2720  2755
  XX1B33 $2333  1022  2762  4601
  XX1B3D $233D  2767  2787
  XX1B3F $233F  2768  2772
  XX1B56 $2356  2770  2779
  XX1B61 $2361  2783  2785
  XX1B68 $2368  1153  1159  1291  1331  1361  1407  1538  1556  2094  2791

                4870
  XX1B8D $238D  2812  2814
  XX1B9A $239A  2815  2818  2820
  XX1BA7 $23A7  2821  2824  2826
  XX1BB1 $23B1  2830  2832
  XX1BC2 $23C2  2833  2836  2838  2841
  XX1BCA $23CA  2842  2845
  XX1BD4 $23D4  2846  2850
  XX1BE1 $23E1  2853  2856
  XX1BED $23ED  2855  2861
  XX1BF1 $23F1  2859  2864
  XX1BF7 $23F7  2851  2865  2867
  XX1C15 $2415  2871  2874  2880
  XX1C18 $2418  2868  2882
  XX1C20 $2420  2886  3071
  XX1C35 $2435  2892  2896
  XX1C38 $2438  2894  2897
  XX1C3D $243D  2899  2944
  XX1C47 $2447  2901  2903
  XX1C4C $244C  2905  2909
  XX1C74 $2474  2919  2923
  XX1C82 $2482  2921  2928
  XX1C8D $248D  2932  2934
  XX1CA8 $24A8  2942  2943  2946
  XX1CA9 $24A9  2896  2902  2948
  XX1CB1 $24B1  2893  2951
  XX1CC0 $24C0  2948  2959  3007
  XX1CC3 $24C3  2960  2964
  XX1CCD $24CD  2961  2965
  XX1CD6 $24D6  2965  2968
  XX1CDC $24DC  2848  2862  2971  3046  3053  3116  3271
  XX1CE8 $24E8  2975  2980
  XX1CF1 $24F1  2986  2995  2996
  XX1D08 $2508  2988  2990  2997
  XX1D0B $250B  2984  2998  3036
  XX1D21 $2521   717  3008
  XX1D28 $2528  3011  3015
  XX1D34 $2534  3010  3016
  XX1D36 $2536  3017  3020
  XX1D5A $255A  2982  3033
  XX1D65 $2565  3038  3041
  XX1D6D $256D  3040  3042
  XX1D6E $256E  1539  3044
  XX1D82 $2582  3050  3054
  XX1DB6 $25B6  3065  3067  3070  3073
  XX1DC4 $25C4  2843  2878  3079  3272
  XX1DE2 $25E2  3085  3091  3095
  XX1DE3 $25E3  3082  3093







CROSS REFERENCE......PAGE   13


  XX1DF5 $25F5  2884  3088  3090  3100
  XX1E02 $2602  3105  3242
  XX1E15 $2615  3111  3114
  XX1E1B $261B  3113  3117
  XX1E3E $263E  3126  3132
  XX1E41 $2641  3130  3133
  XX1E5F $265F  3142  3144  3151
  XX1E62 $2662  3153  3162
  XX1E75 $2675  3160  3162
  XX1E78 $2678  3154  3164
  XX1E80 $2680  3165  3168
  XX1E83 $2683  3169  3172
  XX1EA5 $26A5  3184  3190
  XX1EB4 $26B4  3187  3191  3198
  XX1EC9 $26C9  3183  3201  3205
  XX1ED3 $26D3  3202  3206  3212
  XX1EE2 $26E2  3176  3179  3208  3213  3231
  XX1EF6 $26F6  3222  3226
  XX1F00 $2700  3221  3223  3227
  XX1F01 $2701  3217  3228
  XX1F08 $2708  3189  3194  3211  3214  3232
  XX1F0B $270B  3166  3233
  XX1F21 $2721  3240  3244
  XX1F2B $272B  3237  3248  3250
  XX1F2C $272C  3137  3139  3156  3252
  XX1F35 $2735  2910  2920  3256
  XX1F38 $2738  3140  3257  3275
  XX1F3B $273B  2903  3123  3132  3157  3256  3257  3258
  XX1F3E $273E  3169  3203  3224  3259
  XX1F43 $2743  2880  3262
  XX1F5A $275A  3268  3272
  XX1F71 $2771  3280  3282
  XX1F77 $2777  3283  3285
  XX1F88 $2788  3295  3299
  XX1F92 $2792  3300  3305
  XX1FA1 $27A1  3301  3302  3307
  XX1FAC $27AC  3265  3311
  XX1FB4 $27B4  3312  3314
  XX1FB8 $27B8  3059  3120  3317
  XX1FC2 $27C2  3321  3342
  XX1FC8 $27C8  3324  3332
  XX1FC9 $27C9  3323  3325
  XX1FF9 $27F9  2912  2915  3024  3026  3254  3345
  XX2004 $2804  3350  3353
* XX2009 $2809  3357
  XX200E $280E  3357  3360
  XX2011 $2811  1230  3371
  XX2012 $2812  1232  3372
  XX2066 $2866  3462  4661
  XX213B $293B  1983  3539
  XX2149 $2949  1756  3556
  XX214A $294A  1987  3557
  XX221C $2A1C  2773  3773
  XX2254 $2A54  2775  3832
  XX228C $2A8C  2951  3021  3027  3055  3074  3894  4365
  XX228F $2A8F  3021  3903







CROSS REFERENCE......PAGE   14


  XX261B $2E1B  3290  4007
  XX261C $2E1C  3292  4008
  XX2655 $2E55  3327  3334  4096
  XX265A $2E5A  3330  3337  4104
  XX265F $2E5F   955  1706  4115
  XX2663 $2E63  4117  4166  4213
  XX266D $2E6D  4119  4122
  XX2685 $2E85  4136  4161
  XX268B $2E8B  4133  4138  4158
  XX26A1 $2EA1  4144  4149
  XX26A7 $2EA7  4140  4152  4169  4274
  XX26AC $2EAC  4130  4156
  XX26BB $2EBB  4124  4163
  XX26C6 $2EC6  4164  4168
  XX26C8 $2EC8  4169  4209
  XX2709 $2F09  4181  4197
  XX2711 $2F11  4120  4200
  XX2723 $2F23  4205  4207
  XX2734 $2F34  4163  4170  4215
  XX2746 $2F46  4220  4222
  XX274B $2F4B  4186  4226
  XX274D $2F4D  4227  4234
  XX275F $2F5F  4230  4235
  XX276D $2F6D  4240  4244
  XX277E $2F7E  2925  2962  2966  2967  2968  2969  3038  3061  3072  3233

                3309  4249
  XX2780 $2F80  2906  3012  3018  3128  3191  3199  3229  3260  3296  3304

                3308  3340  3360  4250  4368
  XX279C $2F9C  4261  4266
  XX27A6 $2FA6  4258  4272
  XX27A9 $2FA9  4270  4273
  XX27AD $2FAD  1605  1630  2758  3077  4147  4276  4312
  XX27CC $2FCC  4284  4288
  XX27D7 $2FD7   926  2926  4293
  XX27DD $2FDD  4294  4297
  XX27EC $2FEC  4304  4306
  XX27FB $2FFB  4308  4312
  XX27FE $2FFE   743   779   825   846  1579  1638  4146  4316
  XX281D $301D  4329  4331
  XX2825 $3025  4325  4328  4336
  XX2827 $3027  4337  4340
  XX2831 $3031  4342  4349
  XX2842 $3042  4345  4350
  XX285E $305E  2952  3022  3028  3056  3075  3274  4363
  XX2860 $3060  4364  4371
  XX2871 $3071   678  4291  4361  4374
  XX287A $307A    73  4378
  XX287C $307C  4379  4382
  XX2885 $3085  4375  4385
  XX2887 $3087  4386  4389
  XX2890 $3090  1307  1311  1318  1400  1722  2027  2032  2038  4392
  XX2898 $3098  4393  4397
  XX28A6 $30A6  4400  4403  4408
  XX28A7 $30A7  4404  4434
  XX28A8 $30A8  4402  4406
  XX28BF $30BF  4413  4417







CROSS REFERENCE......PAGE   15


  XX28C7 $30C7  4418  4420
  XX28CA $30CA  4416  4421
  XX28E0 $30E0  4428  4430
  XX28E8 $30E8  4431  4433
  XX28F2 $30F2   827  4438
  XX28FA $30FA  4420  4441
  XX2904 $3104  4436  4445  4517
  XX2927 $3127  4456  4458
  XX2928 $3128  4419  4435  4460  4512  4518
  XX2930 $3130  4461  4463
  XX2941 $3141  4471  4477
  XX2969 $3169  4473  4484  4486  4489
  XX297A $317A  4470  4488  4495  4499
  XX298D $318D  4502  4507
  XX2991 $3191  4285  4510
  XX2999 $3199  4511  4513
  XX29AB $31AB  4494  4498  4520
  XX29B2 $31B2  4522  4524
  XX29B5 $31B5  4527  4544
  XX29CA $31CA  4537  4624  4630  4635  4647  4654  4659  4688  4690
  XX29D2 $31D2  4539  4543
  XX29DE $31DE  4546  4548
  XX29EC $31EC  4554  4557
  XX29EE $31EE  4558  4939  4968  5005
  XX29F1 $31F1  4241  4246  4560  4823  4887  4946  4948  4950  4952  4954

                4956  4958
  XX2A17 $3217  4576  4579
  XX2A26 $3226  4583  4587
  XX2A34 $3234  4592  4597
  XX2A39 $3239  4591  4595
  XX2A52 $3252  4600  4602  4606
  XX2A64 $3264  4608  4614
  XX2A7D $327D  4623  4627
  XX2A89 $3289  4629  4632
  XX2A93 $3293  4634  4644  4657  4664  4668
  XX2A98 $3298  4610  4633  4636
  XX2AA3 $32A3  4638  4641
  XX2AA8 $32A8  4643  4648  4666
  XX2AB1 $32B1  4647  4670
  XX2AB7 $32B7  4646  4650
  XX2AC8 $32C8  4656  4680
  XX2AFD $32FD  4662  4678
  XX2B34 $3334  4682  4701
  XX2B3F $333F  4643  4656  4667  4707
  XX2B50 $3350  4712  4716
  XX2B55 $3355  1070  4720
  XX2B5D $335D  4725  4750
  XX2B6C $336C  4730  4734
  XX2B6E $336E  4735  4739
  XX2B7A $337A  4737  4743
  XX2B89 $3389  1072  4752
  XX2BAC $33AC  4590  4766
  XX2BB1 $33B1  4768  4775  4788
  XX2BB3 $33B3  4767  4771
  XX2BBF $33BF  4776  4785  4786
  XX2BC9 $33C9  4777  4780







CROSS REFERENCE......PAGE   16


  XX2BD8 $33D8  4779  4787
  XX2BE5 $33E5  4790  4794
  XX2BEA $33EA  4796  4800
  XX2BF4 $33F4  4797  4801
  XX2BF9 $33F9  4763  4805
  XX2C02 $3402  4809  4811
  XX2C1B $341B  4819  4824  4827
  XX2C2A $342A  4822  4826
  XX2C30 $3430  4814  4820  4829
  XX2C34 $3434  4558  4580  4832  4892  4915
  XX2C47 $3447  4585  4593  4604  4612  4676  4705  4792  4840
  XX2C4F $344F  4819  4844
  XX2C59 $3459  4846  4848
  XX2C69 $3469  4847  4850  4852  4857
  XX2C6B $346B  4636  4701  4756  4860
  XX2C81 $3481  4866  4873
  XX2C87 $3487  4826  4829  4880
  XX2C97 $3497  4882  4886
  XX2CA8 $34A8  4890  4894
  XX2CCA $34CA  4885  4908
  XX2CCE $34CE  4173  4806  4897  4911
  XX2CD3 $34D3  4914  4918
  XX2CD8 $34D8  4913  4917
  XX2CEE $34EE  4757  4934
  XX2CFD $34FD  4937  4941
  XX2D40 $3540  4165  4965
  XX2D4A $354A  4966  4970
  XX2D94 $3594  5005  5015
  XX2D97 $3597  5003  5007
  XX2DA8 $35A8  5013  5016
  XX2DA9 $35A9  4762  5018
  XX2DCB $35CB  1036  4606  5034
  XX2DE9 $35E9  5039  5041  5043  5045  5048
  XX2DF0 $35F0  5036  5047  5052
  XX2DF1 $35F1   534   535  5066
* ZZ080F $100F    73
  ZZ10D2 $18D2  1434  3407  3408
  ZZ206C $286C  1427  1429  3464
  ZZ2093 $2893  2762  2764  3480

























































































